ARM GAS  C:\Users\skipi\AppData\Local\Temp\ccXGCwsT.s 			page 1


   1              		.cpu cortex-m7
   2              		.eabi_attribute 28, 1
   3              		.eabi_attribute 20, 1
   4              		.eabi_attribute 21, 1
   5              		.eabi_attribute 23, 3
   6              		.eabi_attribute 24, 1
   7              		.eabi_attribute 25, 1
   8              		.eabi_attribute 26, 1
   9              		.eabi_attribute 30, 2
  10              		.eabi_attribute 34, 1
  11              		.eabi_attribute 18, 4
  12              		.file	"XorM.cpp"
  13              		.text
  14              	.Ltext0:
  15              		.cfi_sections	.debug_frame
  16              		.section	.text._ZN4XorMC2Ev,"ax",%progbits
  17              		.align	1
  18              		.p2align 2,,3
  19              		.global	_ZN4XorMC2Ev
  20              		.arch armv7e-m
  21              		.syntax unified
  22              		.thumb
  23              		.thumb_func
  24              		.fpu fpv5-d16
  26              	_ZN4XorMC2Ev:
  27              	.LVL0:
  28              	.LFB563:
  29              		.file 1 "XorM.cpp"
   1:XorM.cpp      **** 
   2:XorM.cpp      **** #include "XorM.h"
   3:XorM.cpp      **** XorM::XorM() {}
  30              		.loc 1 3 1 view -0
  31              		.cfi_startproc
  32              		@ args = 0, pretend = 0, frame = 0
  33              		@ frame_needed = 0, uses_anonymous_args = 0
  34              		@ link register save eliminated.
  35              		.loc 1 3 15 is_stmt 0 view .LVU1
  36 0000 7047     		bx	lr
  37              		.cfi_endproc
  38              	.LFE563:
  40              		.global	_ZN4XorMC1Ev
  41              		.thumb_set _ZN4XorMC1Ev,_ZN4XorMC2Ev
  42 0002 00BF     		.section	.text._ZN4XorMD2Ev,"ax",%progbits
  43              		.align	1
  44              		.p2align 2,,3
  45              		.global	_ZN4XorMD2Ev
  46              		.syntax unified
  47              		.thumb
  48              		.thumb_func
  49              		.fpu fpv5-d16
  51              	_ZN4XorMD2Ev:
  52              	.LVL1:
  53              	.LFB566:
   4:XorM.cpp      **** XorM::~XorM() {}
  54              		.loc 1 4 1 is_stmt 1 view -0
  55              		.cfi_startproc
  56              		@ args = 0, pretend = 0, frame = 0
ARM GAS  C:\Users\skipi\AppData\Local\Temp\ccXGCwsT.s 			page 2


  57              		@ frame_needed = 0, uses_anonymous_args = 0
  58              		@ link register save eliminated.
  59              		.loc 1 4 16 is_stmt 0 view .LVU3
  60 0000 7047     		bx	lr
  61              		.cfi_endproc
  62              	.LFE566:
  64              		.global	_ZN4XorMD1Ev
  65              		.thumb_set _ZN4XorMD1Ev,_ZN4XorMD2Ev
  66 0002 00BF     		.section	.text._ZN4XorM4initEv,"ax",%progbits
  67              		.align	1
  68              		.p2align 2,,3
  69              		.global	_ZN4XorM4initEv
  70              		.syntax unified
  71              		.thumb
  72              		.thumb_func
  73              		.fpu fpv5-d16
  75              	_ZN4XorM4initEv:
  76              	.LVL2:
  77              	.LFB568:
   5:XorM.cpp      **** 
   6:XorM.cpp      **** void XorM::init()
   7:XorM.cpp      **** {
  78              		.loc 1 7 1 is_stmt 1 view -0
  79              		.cfi_startproc
  80              		@ args = 0, pretend = 0, frame = 0
  81              		@ frame_needed = 0, uses_anonymous_args = 0
  82              		@ link register save eliminated.
   8:XorM.cpp      ****     _mask = 0;
  83              		.loc 1 8 5 view .LVU5
  84              		.loc 1 8 11 is_stmt 0 view .LVU6
  85 0000 0023     		movs	r3, #0
  86 0002 0380     		strh	r3, [r0]	@ movhi
   9:XorM.cpp      **** }
  87              		.loc 1 9 1 view .LVU7
  88 0004 7047     		bx	lr
  89              		.cfi_endproc
  90              	.LFE568:
  92 0006 00BF     		.section	.text._ZN4XorM7processEff,"ax",%progbits
  93              		.align	1
  94              		.p2align 2,,3
  95              		.global	_ZN4XorM7processEff
  96              		.syntax unified
  97              		.thumb
  98              		.thumb_func
  99              		.fpu fpv5-d16
 101              	_ZN4XorM7processEff:
 102              	.LVL3:
 103              	.LFB569:
  10:XorM.cpp      **** 
  11:XorM.cpp      **** float XorM::process(float input, float carrier)
  12:XorM.cpp      **** {
 104              		.loc 1 12 1 is_stmt 1 view -0
 105              		.cfi_startproc
 106              		@ args = 0, pretend = 0, frame = 0
 107              		@ frame_needed = 0, uses_anonymous_args = 0
 108              		@ link register save eliminated.
  13:XorM.cpp      **** 
ARM GAS  C:\Users\skipi\AppData\Local\Temp\ccXGCwsT.s 			page 3


  14:XorM.cpp      ****     if (_mask == 0 && carrier == 0)
 109              		.loc 1 14 5 view .LVU9
 110              		.loc 1 14 20 is_stmt 0 view .LVU10
 111 0000 F5EE400A 		vcmp.f32	s1, #0
 112              		.loc 1 14 9 view .LVU11
 113 0004 B0F90030 		ldrsh	r3, [r0]
 114              		.loc 1 14 20 view .LVU12
 115 0008 F1EE10FA 		vmrs	APSR_nzcv, FPSCR
 116 000c 00D1     		bne	.L9
 117 000e CBB1     		cbz	r3, .L5
 118              	.L9:
  15:XorM.cpp      ****         return input;
  16:XorM.cpp      **** 
  17:XorM.cpp      ****     int16_t intInput = (int16_t)(input * 32767.0f);
 119              		.loc 1 17 5 is_stmt 1 view .LVU13
 120              	.LVL4:
  18:XorM.cpp      ****     int16_t intCarrier = (int16_t)(carrier * 32767.0f);
 121              		.loc 1 18 5 view .LVU14
  19:XorM.cpp      ****     _masked = (float)(intInput ^ (_mask + intCarrier));
 122              		.loc 1 19 5 view .LVU15
  18:XorM.cpp      ****     int16_t intCarrier = (int16_t)(carrier * 32767.0f);
 123              		.loc 1 18 44 is_stmt 0 view .LVU16
 124 0010 9FED0D7A 		vldr.32	s14, .L13
 125 0014 60EE870A 		vmul.f32	s1, s1, s14
 126              	.LVL5:
  17:XorM.cpp      ****     int16_t intCarrier = (int16_t)(carrier * 32767.0f);
 127              		.loc 1 17 40 view .LVU17
 128 0018 20EE070A 		vmul.f32	s0, s0, s14
 129              	.LVL6:
  18:XorM.cpp      ****     int16_t intCarrier = (int16_t)(carrier * 32767.0f);
 130              		.loc 1 18 13 view .LVU18
 131 001c FDEEE00A 		vcvt.s32.f32	s1, s1
  17:XorM.cpp      ****     int16_t intCarrier = (int16_t)(carrier * 32767.0f);
 132              		.loc 1 17 13 view .LVU19
 133 0020 BDEEC00A 		vcvt.s32.f32	s0, s0
 134              		.loc 1 19 41 view .LVU20
 135 0024 10EE902A 		vmov	r2, s1	@ int
 136 0028 03FA82F3 		sxtah	r3, r3, r2
 137              		.loc 1 19 23 view .LVU21
 138 002c 10EE102A 		vmov	r2, s0	@ int
 139 0030 12B2     		sxth	r2, r2
 140              		.loc 1 19 32 view .LVU22
 141 0032 5340     		eors	r3, r3, r2
 142              		.loc 1 19 15 view .LVU23
 143 0034 07EE903A 		vmov	s15, r3	@ int
 144 0038 F8EEE77A 		vcvt.f32.s32	s15, s15
  20:XorM.cpp      **** 
  21:XorM.cpp      ****     return _masked / 32767.0f;
 145              		.loc 1 21 22 view .LVU24
 146 003c 87EE870A 		vdiv.f32	s0, s15, s14
  19:XorM.cpp      **** 
 147              		.loc 1 19 13 view .LVU25
 148 0040 C0ED017A 		vstr.32	s15, [r0, #4]
 149              		.loc 1 21 5 is_stmt 1 view .LVU26
 150              	.LVL7:
 151              	.L5:
  22:XorM.cpp      **** }
ARM GAS  C:\Users\skipi\AppData\Local\Temp\ccXGCwsT.s 			page 4


 152              		.loc 1 22 1 is_stmt 0 view .LVU27
 153 0044 7047     		bx	lr
 154              	.L14:
 155 0046 00BF     		.align	2
 156              	.L13:
 157 0048 00FEFF46 		.word	1191181824
 158              		.cfi_endproc
 159              	.LFE569:
 161              		.section	.text._ZN4XorM7setMaskEf,"ax",%progbits
 162              		.align	1
 163              		.p2align 2,,3
 164              		.global	_ZN4XorM7setMaskEf
 165              		.syntax unified
 166              		.thumb
 167              		.thumb_func
 168              		.fpu fpv5-d16
 170              	_ZN4XorM7setMaskEf:
 171              	.LVL8:
 172              	.LFB570:
  23:XorM.cpp      **** 
  24:XorM.cpp      **** void XorM::setMask(float mask)
  25:XorM.cpp      **** {
 173              		.loc 1 25 1 is_stmt 1 view -0
 174              		.cfi_startproc
 175              		@ args = 0, pretend = 0, frame = 0
 176              		@ frame_needed = 0, uses_anonymous_args = 0
 177              		@ link register save eliminated.
  26:XorM.cpp      ****     _mask = (int16_t)(mask * 32767.0f);
 178              		.loc 1 26 5 view .LVU29
 179              		.loc 1 26 28 is_stmt 0 view .LVU30
 180 0000 DFED047A 		vldr.32	s15, .L16
 181 0004 20EE270A 		vmul.f32	s0, s0, s15
 182              	.LVL9:
 183              		.loc 1 26 13 view .LVU31
 184 0008 BDEEC00A 		vcvt.s32.f32	s0, s0
 185 000c 10EE103A 		vmov	r3, s0	@ int
 186 0010 0380     		strh	r3, [r0]	@ movhi
  27:XorM.cpp      **** }...
 187              		.loc 1 27 1 view .LVU32
 188 0012 7047     		bx	lr
 189              	.L17:
 190              		.align	2
 191              	.L16:
 192 0014 00FEFF46 		.word	1191181824
 193              		.cfi_endproc
 194              	.LFE570:
 196              		.text
 197              	.Letext0:
 198              		.file 2 "c:\\program files\\daisytoolchain\\arm-none-eabi\\include\\machine\\_default_types.h"
 199              		.file 3 "c:\\program files\\daisytoolchain\\arm-none-eabi\\include\\sys\\_stdint.h"
 200              		.file 4 "c:\\program files\\daisytoolchain\\arm-none-eabi\\include\\c++\\10.2.1\\cmath"
 201              		.file 5 "c:\\program files\\daisytoolchain\\arm-none-eabi\\include\\c++\\10.2.1\\bits\\std_abs.h"
 202              		.file 6 "c:\\program files\\daisytoolchain\\arm-none-eabi\\include\\c++\\10.2.1\\arm-none-eabi\\th
 203              		.file 7 "c:\\program files\\daisytoolchain\\arm-none-eabi\\include\\math.h"
 204              		.file 8 "c:\\program files\\daisytoolchain\\arm-none-eabi\\include\\c++\\10.2.1\\math.h"
 205              		.file 9 "XorM.h"
 206              		.file 10 "<built-in>"
ARM GAS  C:\Users\skipi\AppData\Local\Temp\ccXGCwsT.s 			page 5


ARM GAS  C:\Users\skipi\AppData\Local\Temp\ccXGCwsT.s 			page 6

