ARM GAS  C:\Users\skipi\AppData\Local\Temp\ccG6iBdF.s 			page 1


   1              		.cpu cortex-m7
   2              		.eabi_attribute 28, 1
   3              		.eabi_attribute 20, 1
   4              		.eabi_attribute 21, 1
   5              		.eabi_attribute 23, 3
   6              		.eabi_attribute 24, 1
   7              		.eabi_attribute 25, 1
   8              		.eabi_attribute 26, 1
   9              		.eabi_attribute 30, 2
  10              		.eabi_attribute 34, 1
  11              		.eabi_attribute 18, 4
  12              		.file	"main.cpp"
  13              		.text
  14              	.Ltext0:
  15              		.cfi_sections	.debug_frame
  16              		.section	.text._ZN5daisy9DaisySeedD2Ev,"axG",%progbits,_ZN5daisy9DaisySeedD5Ev,comdat
  17              		.align	1
  18              		.p2align 2,,3
  19              		.weak	_ZN5daisy9DaisySeedD2Ev
  20              		.arch armv7e-m
  21              		.syntax unified
  22              		.thumb
  23              		.thumb_func
  24              		.fpu fpv5-d16
  26              	_ZN5daisy9DaisySeedD2Ev:
  27              	.LVL0:
  28              	.LFB2729:
  29              		.file 1 "../../../libDaisy/src/daisy_seed.h"
   1:../../../libDaisy/src/daisy_seed.h **** #pragma once
   2:../../../libDaisy/src/daisy_seed.h **** #ifndef DSY_SEED_H
   3:../../../libDaisy/src/daisy_seed.h **** #define DSY_SEED_H
   4:../../../libDaisy/src/daisy_seed.h **** 
   5:../../../libDaisy/src/daisy_seed.h **** #include "daisy.h"
   6:../../../libDaisy/src/daisy_seed.h **** 
   7:../../../libDaisy/src/daisy_seed.h **** //Uncomment this out if you're still using the rev2 hardware
   8:../../../libDaisy/src/daisy_seed.h **** //#define SEED_REV2
   9:../../../libDaisy/src/daisy_seed.h **** 
  10:../../../libDaisy/src/daisy_seed.h **** namespace daisy
  11:../../../libDaisy/src/daisy_seed.h **** {
  12:../../../libDaisy/src/daisy_seed.h **** /**
  13:../../../libDaisy/src/daisy_seed.h ****    @brief This is the higher-level interface for the Daisy board. \n 
  14:../../../libDaisy/src/daisy_seed.h ****     All basic peripheral configuration/initialization is setup here. \n
  15:../../../libDaisy/src/daisy_seed.h **** 
  16:../../../libDaisy/src/daisy_seed.h ****    @ingroup boards
  17:../../../libDaisy/src/daisy_seed.h **** */
  18:../../../libDaisy/src/daisy_seed.h **** class DaisySeed
  19:../../../libDaisy/src/daisy_seed.h **** {
  20:../../../libDaisy/src/daisy_seed.h ****   public:
  21:../../../libDaisy/src/daisy_seed.h ****     DaisySeed() {}
  22:../../../libDaisy/src/daisy_seed.h ****     ~DaisySeed() {}
  30              		.loc 1 22 5 view -0
  31              		.cfi_startproc
  32              		@ args = 0, pretend = 0, frame = 0
  33              		@ frame_needed = 0, uses_anonymous_args = 0
  34              		@ link register save eliminated.
  35              	.LBB173:
  36              	.LBI173:
ARM GAS  C:\Users\skipi\AppData\Local\Temp\ccG6iBdF.s 			page 2


  37              		.file 2 "../../../libDaisy/src/dev/codec_ak4556.h"
   1:../../../libDaisy/src/dev/codec_ak4556.h **** #pragma once
   2:../../../libDaisy/src/dev/codec_ak4556.h **** #ifndef DSY_CODEC_AK4556_H
   3:../../../libDaisy/src/dev/codec_ak4556.h **** #define DSY_CODEC_AK4556_H
   4:../../../libDaisy/src/dev/codec_ak4556.h **** 
   5:../../../libDaisy/src/dev/codec_ak4556.h **** #include "daisy_core.h"
   6:../../../libDaisy/src/dev/codec_ak4556.h **** #include "per/gpio.h"
   7:../../../libDaisy/src/dev/codec_ak4556.h **** 
   8:../../../libDaisy/src/dev/codec_ak4556.h **** namespace daisy
   9:../../../libDaisy/src/dev/codec_ak4556.h **** {
  10:../../../libDaisy/src/dev/codec_ak4556.h **** /** @brief Ak4556 Codec support 
  11:../../../libDaisy/src/dev/codec_ak4556.h ****  ** @author shensley
  12:../../../libDaisy/src/dev/codec_ak4556.h ****  ** @addtogroup codec
  13:../../../libDaisy/src/dev/codec_ak4556.h ****  ** 
  14:../../../libDaisy/src/dev/codec_ak4556.h ****  ** I don't see any real reason to have this be more than a function, but in case we want
  15:../../../libDaisy/src/dev/codec_ak4556.h ****  ** to add other functions down the road I wrapped the function in a class.
  16:../../../libDaisy/src/dev/codec_ak4556.h ****  ***/
  17:../../../libDaisy/src/dev/codec_ak4556.h **** class Ak4556
  18:../../../libDaisy/src/dev/codec_ak4556.h **** {
  19:../../../libDaisy/src/dev/codec_ak4556.h ****   public:
  20:../../../libDaisy/src/dev/codec_ak4556.h ****     Ak4556() {}
  21:../../../libDaisy/src/dev/codec_ak4556.h ****     ~Ak4556() {}
  38              		.loc 2 21 5 view .LVU1
  39              		.loc 2 21 5 is_stmt 0 view .LVU2
  40              	.LBE173:
  41              	.LBB174:
  42              	.LBI174:
  43              		.file 3 "../../../libDaisy/src/sys/system.h"
   1:../../../libDaisy/src/sys/system.h **** #ifndef DSY_SYSTEM_H
   2:../../../libDaisy/src/sys/system.h **** #define DSY_SYSTEM_H
   3:../../../libDaisy/src/sys/system.h **** 
   4:../../../libDaisy/src/sys/system.h **** #ifndef UNIT_TEST // for unit tests, a dummy implementation is provided below
   5:../../../libDaisy/src/sys/system.h **** 
   6:../../../libDaisy/src/sys/system.h **** #include <cstdint>
   7:../../../libDaisy/src/sys/system.h **** #include "per/tim.h"
   8:../../../libDaisy/src/sys/system.h **** 
   9:../../../libDaisy/src/sys/system.h **** namespace daisy
  10:../../../libDaisy/src/sys/system.h **** {
  11:../../../libDaisy/src/sys/system.h **** /** A handle for interacting with the Core System.
  12:../../../libDaisy/src/sys/system.h ****  ** This includes the Clock tree, MPU, global DMA initialization,
  13:../../../libDaisy/src/sys/system.h ****  ** cache handling, and any other necessary global initiailzation
  14:../../../libDaisy/src/sys/system.h ****  **
  15:../../../libDaisy/src/sys/system.h ****  ** @author shensley
  16:../../../libDaisy/src/sys/system.h ****  ** @ingroup system
  17:../../../libDaisy/src/sys/system.h ****  */
  18:../../../libDaisy/src/sys/system.h **** class System
  19:../../../libDaisy/src/sys/system.h **** {
  20:../../../libDaisy/src/sys/system.h ****   public:
  21:../../../libDaisy/src/sys/system.h ****     /** Contains settings for initializing the System */
  22:../../../libDaisy/src/sys/system.h ****     struct Config
  23:../../../libDaisy/src/sys/system.h ****     {
  24:../../../libDaisy/src/sys/system.h ****         /** Specifies the system clock frequency that feeds APB/AHB clocks, etc. */
  25:../../../libDaisy/src/sys/system.h ****         enum class SysClkFreq
  26:../../../libDaisy/src/sys/system.h ****         {
  27:../../../libDaisy/src/sys/system.h ****             FREQ_400MHZ,
  28:../../../libDaisy/src/sys/system.h ****             FREQ_480MHZ,
  29:../../../libDaisy/src/sys/system.h ****         };
ARM GAS  C:\Users\skipi\AppData\Local\Temp\ccG6iBdF.s 			page 3


  30:../../../libDaisy/src/sys/system.h **** 
  31:../../../libDaisy/src/sys/system.h ****         /** Method to call on the struct to set to defaults
  32:../../../libDaisy/src/sys/system.h ****          ** CPU Freq set to 400MHz
  33:../../../libDaisy/src/sys/system.h ****          ** Cache Enabled
  34:../../../libDaisy/src/sys/system.h ****          ** */
  35:../../../libDaisy/src/sys/system.h ****         void Defaults()
  36:../../../libDaisy/src/sys/system.h ****         {
  37:../../../libDaisy/src/sys/system.h ****             cpu_freq    = SysClkFreq::FREQ_400MHZ;
  38:../../../libDaisy/src/sys/system.h ****             use_dcache  = true;
  39:../../../libDaisy/src/sys/system.h ****             use_icache  = true;
  40:../../../libDaisy/src/sys/system.h ****             skip_clocks = false;
  41:../../../libDaisy/src/sys/system.h ****         }
  42:../../../libDaisy/src/sys/system.h **** 
  43:../../../libDaisy/src/sys/system.h ****         /** Method to call on the struct to set to boost mode:
  44:../../../libDaisy/src/sys/system.h ****          ** CPU Freq set to 480MHz
  45:../../../libDaisy/src/sys/system.h ****          ** Cache Enabled
  46:../../../libDaisy/src/sys/system.h ****          ** */
  47:../../../libDaisy/src/sys/system.h ****         void Boost()
  48:../../../libDaisy/src/sys/system.h ****         {
  49:../../../libDaisy/src/sys/system.h ****             cpu_freq    = SysClkFreq::FREQ_480MHZ;
  50:../../../libDaisy/src/sys/system.h ****             use_dcache  = true;
  51:../../../libDaisy/src/sys/system.h ****             use_icache  = true;
  52:../../../libDaisy/src/sys/system.h ****             skip_clocks = false;
  53:../../../libDaisy/src/sys/system.h ****         }
  54:../../../libDaisy/src/sys/system.h **** 
  55:../../../libDaisy/src/sys/system.h ****         SysClkFreq cpu_freq;
  56:../../../libDaisy/src/sys/system.h ****         bool       use_dcache;
  57:../../../libDaisy/src/sys/system.h ****         bool       use_icache;
  58:../../../libDaisy/src/sys/system.h ****         bool       skip_clocks;
  59:../../../libDaisy/src/sys/system.h ****     };
  60:../../../libDaisy/src/sys/system.h **** 
  61:../../../libDaisy/src/sys/system.h ****     /** Describes the different regions of memory available to the Daisy */
  62:../../../libDaisy/src/sys/system.h ****     enum MemoryRegion
  63:../../../libDaisy/src/sys/system.h ****     {
  64:../../../libDaisy/src/sys/system.h ****         INTERNAL_FLASH = 0,
  65:../../../libDaisy/src/sys/system.h ****         ITCMRAM,
  66:../../../libDaisy/src/sys/system.h ****         DTCMRAM,
  67:../../../libDaisy/src/sys/system.h ****         SRAM_D1,
  68:../../../libDaisy/src/sys/system.h ****         SRAM_D2,
  69:../../../libDaisy/src/sys/system.h ****         SRAM_D3,
  70:../../../libDaisy/src/sys/system.h ****         SDRAM,
  71:../../../libDaisy/src/sys/system.h ****         QSPI,
  72:../../../libDaisy/src/sys/system.h ****         INVALID_ADDRESS,
  73:../../../libDaisy/src/sys/system.h ****     };
  74:../../../libDaisy/src/sys/system.h **** 
  75:../../../libDaisy/src/sys/system.h ****     /** Bootloader struct for controlling bootloading parameters */
  76:../../../libDaisy/src/sys/system.h ****     struct BootInfo
  77:../../../libDaisy/src/sys/system.h ****     {
  78:../../../libDaisy/src/sys/system.h ****         enum class Type : uint32_t
  79:../../../libDaisy/src/sys/system.h ****         {
  80:../../../libDaisy/src/sys/system.h ****             INVALID      = 0x00000000,
  81:../../../libDaisy/src/sys/system.h ****             JUMP         = 0xDEADBEEF,
  82:../../../libDaisy/src/sys/system.h ****             SKIP_TIMEOUT = 0x5AFEB007,
  83:../../../libDaisy/src/sys/system.h ****             INF_TIMEOUT  = 0xB0074EFA,
  84:../../../libDaisy/src/sys/system.h ****         } status;
  85:../../../libDaisy/src/sys/system.h ****         uint32_t data;
  86:../../../libDaisy/src/sys/system.h ****         enum class Version : uint32_t
ARM GAS  C:\Users\skipi\AppData\Local\Temp\ccG6iBdF.s 			page 4


  87:../../../libDaisy/src/sys/system.h ****         {
  88:../../../libDaisy/src/sys/system.h ****             LT_v6_0 = 0, // Less than v6.0
  89:../../../libDaisy/src/sys/system.h ****             NONE,        // No bootloader present
  90:../../../libDaisy/src/sys/system.h ****             v6_0,        // v6.0
  91:../../../libDaisy/src/sys/system.h ****             v6_1,        // v6.1 or greater
  92:../../../libDaisy/src/sys/system.h ****             LAST
  93:../../../libDaisy/src/sys/system.h ****         } version;
  94:../../../libDaisy/src/sys/system.h ****     };
  95:../../../libDaisy/src/sys/system.h **** 
  96:../../../libDaisy/src/sys/system.h ****     System() {}
  97:../../../libDaisy/src/sys/system.h ****     ~System() {}
  44              		.loc 3 97 5 is_stmt 1 view .LVU3
  45              		.loc 3 97 5 is_stmt 0 view .LVU4
  46              	.LBE174:
  47              	.LBB175:
  48              	.LBI175:
  49              		.file 4 "../../../libDaisy/src/hid/usb.h"
   1:../../../libDaisy/src/hid/usb.h **** #pragma once
   2:../../../libDaisy/src/hid/usb.h **** #ifndef DSY_HID_USB_H
   3:../../../libDaisy/src/hid/usb.h **** #define DSY_HID_USB_H
   4:../../../libDaisy/src/hid/usb.h **** #include <stdint.h>
   5:../../../libDaisy/src/hid/usb.h **** #include <stdlib.h>
   6:../../../libDaisy/src/hid/usb.h **** 
   7:../../../libDaisy/src/hid/usb.h **** namespace daisy
   8:../../../libDaisy/src/hid/usb.h **** /** @addtogroup human_interface
   9:../../../libDaisy/src/hid/usb.h ****     @{
  10:../../../libDaisy/src/hid/usb.h **** */
  11:../../../libDaisy/src/hid/usb.h **** 
  12:../../../libDaisy/src/hid/usb.h **** {
  13:../../../libDaisy/src/hid/usb.h **** /** 
  14:../../../libDaisy/src/hid/usb.h ****     @brief Interface for initializing and using the USB Peripherals on the daisy
  15:../../../libDaisy/src/hid/usb.h ****     @author Stephen Hensley
  16:../../../libDaisy/src/hid/usb.h ****     @date December 2019
  17:../../../libDaisy/src/hid/usb.h **** */
  18:../../../libDaisy/src/hid/usb.h **** class UsbHandle
  19:../../../libDaisy/src/hid/usb.h **** {
  20:../../../libDaisy/src/hid/usb.h ****   public:
  21:../../../libDaisy/src/hid/usb.h ****     /** Return values for USBHandle Functions */
  22:../../../libDaisy/src/hid/usb.h ****     enum class Result
  23:../../../libDaisy/src/hid/usb.h ****     {
  24:../../../libDaisy/src/hid/usb.h ****         OK,
  25:../../../libDaisy/src/hid/usb.h ****         ERR,
  26:../../../libDaisy/src/hid/usb.h ****     };
  27:../../../libDaisy/src/hid/usb.h **** 
  28:../../../libDaisy/src/hid/usb.h ****     /** Specified which of the two USB Peripherals to initialize. */
  29:../../../libDaisy/src/hid/usb.h ****     enum UsbPeriph
  30:../../../libDaisy/src/hid/usb.h ****     {
  31:../../../libDaisy/src/hid/usb.h ****         FS_INTERNAL, /**< Internal pin */
  32:../../../libDaisy/src/hid/usb.h ****         FS_EXTERNAL, /**< FS External D+ pin is Pin 38 (GPIO32). FS External D- pin is Pin 37 (GPIO
  33:../../../libDaisy/src/hid/usb.h ****         FS_BOTH,     /**< Both */
  34:../../../libDaisy/src/hid/usb.h ****     };
  35:../../../libDaisy/src/hid/usb.h **** 
  36:../../../libDaisy/src/hid/usb.h **** 
  37:../../../libDaisy/src/hid/usb.h ****     /** Function called upon reception of a buffer */
  38:../../../libDaisy/src/hid/usb.h ****     typedef void (*ReceiveCallback)(uint8_t* buff, uint32_t* len);
  39:../../../libDaisy/src/hid/usb.h **** 
  40:../../../libDaisy/src/hid/usb.h ****     UsbHandle() {}
ARM GAS  C:\Users\skipi\AppData\Local\Temp\ccG6iBdF.s 			page 5


  41:../../../libDaisy/src/hid/usb.h **** 
  42:../../../libDaisy/src/hid/usb.h ****     ~UsbHandle() {}
  50              		.loc 4 42 5 is_stmt 1 view .LVU5
  51              		.loc 4 42 5 is_stmt 0 view .LVU6
  52              	.LBE175:
  53              	.LBB176:
  54              	.LBI176:
  55              		.file 5 "../../../libDaisy/src/per/adc.h"
   1:../../../libDaisy/src/per/adc.h **** #pragma once
   2:../../../libDaisy/src/per/adc.h **** #ifndef DSY_ADC_H
   3:../../../libDaisy/src/per/adc.h **** #define DSY_ADC_H /**< Macro */
   4:../../../libDaisy/src/per/adc.h **** #include <stdint.h>
   5:../../../libDaisy/src/per/adc.h **** #include <stdlib.h>
   6:../../../libDaisy/src/per/adc.h **** #include "daisy_core.h"
   7:../../../libDaisy/src/per/adc.h **** #include "per/gpio.h"
   8:../../../libDaisy/src/per/adc.h **** 
   9:../../../libDaisy/src/per/adc.h **** #define DSY_ADC_MAX_CHANNELS 16 /**< Maximum number of ADC channels */
  10:../../../libDaisy/src/per/adc.h **** 
  11:../../../libDaisy/src/per/adc.h **** namespace daisy
  12:../../../libDaisy/src/per/adc.h **** {
  13:../../../libDaisy/src/per/adc.h **** /** @addtogroup per_analog
  14:../../../libDaisy/src/per/adc.h ****     @{
  15:../../../libDaisy/src/per/adc.h **** */
  16:../../../libDaisy/src/per/adc.h **** 
  17:../../../libDaisy/src/per/adc.h **** /* While there may not be many configuration options here,
  18:../../../libDaisy/src/per/adc.h **** using a struct like this allows us to add more configuration
  19:../../../libDaisy/src/per/adc.h **** later without breaking existing functionality.
  20:../../../libDaisy/src/per/adc.h **** */
  21:../../../libDaisy/src/per/adc.h **** 
  22:../../../libDaisy/src/per/adc.h **** /** @brief   Configuration Structure for an ADC Channel 
  23:../../../libDaisy/src/per/adc.h ****  *  @details This can be used to configure a a single input, 
  24:../../../libDaisy/src/per/adc.h ****  *           or a multiplexed input, allowing up to 8 inputs on 
  25:../../../libDaisy/src/per/adc.h ****  *           one channel.
  26:../../../libDaisy/src/per/adc.h ****  *  @note    Sharing data lines to multiple muxes _is_ possible, but
  27:../../../libDaisy/src/per/adc.h ****  *           each channel sharing data lines must be set to the maximum
  28:../../../libDaisy/src/per/adc.h ****  *           number of channels, even if some multiplexers have fewer
  29:../../../libDaisy/src/per/adc.h ****  *           inputs connected.
  30:../../../libDaisy/src/per/adc.h **** */
  31:../../../libDaisy/src/per/adc.h **** struct AdcChannelConfig
  32:../../../libDaisy/src/per/adc.h **** {
  33:../../../libDaisy/src/per/adc.h ****     /** Which pin to use for multiplexing */
  34:../../../libDaisy/src/per/adc.h ****     enum MuxPin
  35:../../../libDaisy/src/per/adc.h ****     {
  36:../../../libDaisy/src/per/adc.h ****         MUX_SEL_0,    /**< & */
  37:../../../libDaisy/src/per/adc.h ****         MUX_SEL_1,    /**< & */
  38:../../../libDaisy/src/per/adc.h ****         MUX_SEL_2,    /**< & */
  39:../../../libDaisy/src/per/adc.h ****         MUX_SEL_LAST, /**< & */
  40:../../../libDaisy/src/per/adc.h ****     };
  41:../../../libDaisy/src/per/adc.h **** 
  42:../../../libDaisy/src/per/adc.h ****     /** \brief per channel conversion speed added to fixed time based on bitdepth, etc. */
  43:../../../libDaisy/src/per/adc.h ****     enum ConversionSpeed
  44:../../../libDaisy/src/per/adc.h ****     {
  45:../../../libDaisy/src/per/adc.h ****         SPEED_1CYCLES_5,
  46:../../../libDaisy/src/per/adc.h ****         SPEED_2CYCLES_5,
  47:../../../libDaisy/src/per/adc.h ****         SPEED_8CYCLES_5,
  48:../../../libDaisy/src/per/adc.h ****         SPEED_16CYCLES_5,
  49:../../../libDaisy/src/per/adc.h ****         SPEED_32CYCLES_5,
ARM GAS  C:\Users\skipi\AppData\Local\Temp\ccG6iBdF.s 			page 6


  50:../../../libDaisy/src/per/adc.h ****         SPEED_64CYCLES_5,
  51:../../../libDaisy/src/per/adc.h ****         SPEED_387CYCLES_5,
  52:../../../libDaisy/src/per/adc.h ****         SPEED_810CYCLES_5,
  53:../../../libDaisy/src/per/adc.h ****     };
  54:../../../libDaisy/src/per/adc.h **** 
  55:../../../libDaisy/src/per/adc.h ****     /** Initializes a single ADC pin as an ADC. 
  56:../../../libDaisy/src/per/adc.h ****     \param pin Pin to init.
  57:../../../libDaisy/src/per/adc.h ****     \param speed conversion speed for this pin defaults to 8.5 cycles
  58:../../../libDaisy/src/per/adc.h ****      */
  59:../../../libDaisy/src/per/adc.h ****     void InitSingle(Pin pin, ConversionSpeed speed = SPEED_8CYCLES_5);
  60:../../../libDaisy/src/per/adc.h **** 
  61:../../../libDaisy/src/per/adc.h ****     /** 
  62:../../../libDaisy/src/per/adc.h ****     Initializes a single ADC pin as a Multiplexed ADC.
  63:../../../libDaisy/src/per/adc.h ****     Requires a CD405X Multiplexer connected to the pin.
  64:../../../libDaisy/src/per/adc.h ****     You only need to supply the mux pins that are required,
  65:../../../libDaisy/src/per/adc.h ****     e.g. a 4052 mux would only require mux_0 and mux_1.
  66:../../../libDaisy/src/per/adc.h ****     Internal Callbacks handle the pin addressing.
  67:../../../libDaisy/src/per/adc.h ****     \param adc_pin &
  68:../../../libDaisy/src/per/adc.h ****     \param mux_channels must be 1-8
  69:../../../libDaisy/src/per/adc.h ****     \param mux_0 First mux pin
  70:../../../libDaisy/src/per/adc.h ****     \param mux_1 Second mux pin
  71:../../../libDaisy/src/per/adc.h ****     \param mux_2 Third mux pin
  72:../../../libDaisy/src/per/adc.h ****     \param speed conversion speed for this pin defaults to 8.5 cycles
  73:../../../libDaisy/src/per/adc.h ****     */
  74:../../../libDaisy/src/per/adc.h ****     void InitMux(Pin             adc_pin,
  75:../../../libDaisy/src/per/adc.h ****                  size_t          mux_channels,
  76:../../../libDaisy/src/per/adc.h ****                  Pin             mux_0,
  77:../../../libDaisy/src/per/adc.h ****                  Pin             mux_1 = Pin(PORTX, 0),
  78:../../../libDaisy/src/per/adc.h ****                  Pin             mux_2 = Pin(PORTX, 0),
  79:../../../libDaisy/src/per/adc.h ****                  ConversionSpeed speed = SPEED_8CYCLES_5);
  80:../../../libDaisy/src/per/adc.h **** 
  81:../../../libDaisy/src/per/adc.h ****     GPIO            pin_;                   /**< & */
  82:../../../libDaisy/src/per/adc.h ****     GPIO            mux_pin_[MUX_SEL_LAST]; /**< & */
  83:../../../libDaisy/src/per/adc.h ****     uint8_t         mux_channels_;          /**< & */
  84:../../../libDaisy/src/per/adc.h ****     ConversionSpeed speed_;
  85:../../../libDaisy/src/per/adc.h **** };
  86:../../../libDaisy/src/per/adc.h **** 
  87:../../../libDaisy/src/per/adc.h **** /**
  88:../../../libDaisy/src/per/adc.h ****    @brief Handler for analog to digital conversion
  89:../../../libDaisy/src/per/adc.h **** */
  90:../../../libDaisy/src/per/adc.h **** class AdcHandle
  91:../../../libDaisy/src/per/adc.h **** {
  92:../../../libDaisy/src/per/adc.h ****   public:
  93:../../../libDaisy/src/per/adc.h ****     /** Supported oversampling amounts */
  94:../../../libDaisy/src/per/adc.h ****     enum OverSampling
  95:../../../libDaisy/src/per/adc.h ****     {
  96:../../../libDaisy/src/per/adc.h ****         OVS_NONE, /**< & */
  97:../../../libDaisy/src/per/adc.h ****         OVS_4,    /**< & */
  98:../../../libDaisy/src/per/adc.h ****         OVS_8,    /**< & */
  99:../../../libDaisy/src/per/adc.h ****         OVS_16,   /**< & */
 100:../../../libDaisy/src/per/adc.h ****         OVS_32,   /**< & */
 101:../../../libDaisy/src/per/adc.h ****         OVS_64,   /**< & */
 102:../../../libDaisy/src/per/adc.h ****         OVS_128,  /**< & */
 103:../../../libDaisy/src/per/adc.h ****         OVS_256,  /**< & */
 104:../../../libDaisy/src/per/adc.h ****         OVS_512,  /**< & */
 105:../../../libDaisy/src/per/adc.h ****         OVS_1024, /**< & */
 106:../../../libDaisy/src/per/adc.h ****         OVS_LAST, /**< & */
ARM GAS  C:\Users\skipi\AppData\Local\Temp\ccG6iBdF.s 			page 7


 107:../../../libDaisy/src/per/adc.h ****     };
 108:../../../libDaisy/src/per/adc.h **** 
 109:../../../libDaisy/src/per/adc.h ****     AdcHandle() {}
 110:../../../libDaisy/src/per/adc.h ****     ~AdcHandle() {}
  56              		.loc 5 110 5 is_stmt 1 view .LVU7
  57              		.loc 5 110 5 is_stmt 0 view .LVU8
  58              	.LBE176:
  59              	.LBB177:
  60              	.LBI177:
  61              		.file 6 "../../../libDaisy/src/hid/audio.h"
   1:../../../libDaisy/src/hid/audio.h **** #ifndef DSY_AUDIO_H
   2:../../../libDaisy/src/hid/audio.h **** #define DSY_AUDIO_H /**< & */
   3:../../../libDaisy/src/hid/audio.h **** 
   4:../../../libDaisy/src/hid/audio.h **** #include "per/sai.h"
   5:../../../libDaisy/src/hid/audio.h **** 
   6:../../../libDaisy/src/hid/audio.h **** namespace daisy
   7:../../../libDaisy/src/hid/audio.h **** {
   8:../../../libDaisy/src/hid/audio.h **** /** @brief Audio Engine Handle
   9:../../../libDaisy/src/hid/audio.h ****  *  @ingroup audio 
  10:../../../libDaisy/src/hid/audio.h ****  *  @details This class allows for higher level access to an audio engine.
  11:../../../libDaisy/src/hid/audio.h ****  *           If you're using a SOM like the DaisySeed or DaisyPatchSM (or any 
  12:../../../libDaisy/src/hid/audio.h ****  *            board that includes one of those objects) then the intialization
  13:../../../libDaisy/src/hid/audio.h ****  *            is already taken  care of.
  14:../../../libDaisy/src/hid/audio.h ****  *           If you're setting up your own custom hardware, or need to make changes
  15:../../../libDaisy/src/hid/audio.h ****  *           you will have to take the following steps:
  16:../../../libDaisy/src/hid/audio.h ****  *             1. Create and Initialize an SaiHandle or two depending on your requirements
  17:../../../libDaisy/src/hid/audio.h ****  *             2. Initialize the Audio Handle with the desired settings and the Initialized SaiHand
  18:../../../libDaisy/src/hid/audio.h ****  *             3. If the connected codec requires special configuration or initialization, do so
  19:../../../libDaisy/src/hid/audio.h ****  *             4. Write a callback method using either the AudioCallback or the InterleavingAudioCa
  20:../../../libDaisy/src/hid/audio.h ****  *             5. Start the Audio using one of the StartAudio function
  21:../../../libDaisy/src/hid/audio.h ****  */
  22:../../../libDaisy/src/hid/audio.h **** class AudioHandle
  23:../../../libDaisy/src/hid/audio.h **** {
  24:../../../libDaisy/src/hid/audio.h ****   public:
  25:../../../libDaisy/src/hid/audio.h ****     /** Manually configurable details about the Audio Engine */
  26:../../../libDaisy/src/hid/audio.h ****     /** TODO: Figure out how to get samplerate in here. */
  27:../../../libDaisy/src/hid/audio.h ****     struct Config
  28:../../../libDaisy/src/hid/audio.h ****     {
  29:../../../libDaisy/src/hid/audio.h ****         /** number of samples to process per callback */
  30:../../../libDaisy/src/hid/audio.h ****         size_t blocksize = 48;
  31:../../../libDaisy/src/hid/audio.h **** 
  32:../../../libDaisy/src/hid/audio.h ****         /**< Sample rate of audio */
  33:../../../libDaisy/src/hid/audio.h ****         SaiHandle::Config::SampleRate samplerate
  34:../../../libDaisy/src/hid/audio.h ****             = SaiHandle::Config::SampleRate::SAI_48KHZ;
  35:../../../libDaisy/src/hid/audio.h **** 
  36:../../../libDaisy/src/hid/audio.h ****         /** factor for adjustment before and after callback for hardware that may have extra headro
  37:../../../libDaisy/src/hid/audio.h ****         float postgain = 1.f;
  38:../../../libDaisy/src/hid/audio.h **** 
  39:../../../libDaisy/src/hid/audio.h ****         /** factor for additional one-sided compensation to audio path for hardware that may
  40:../../../libDaisy/src/hid/audio.h ****          *  have unequal input/output ranges
  41:../../../libDaisy/src/hid/audio.h ****          */
  42:../../../libDaisy/src/hid/audio.h ****         float output_compensation = 1.f;
  43:../../../libDaisy/src/hid/audio.h ****     };
  44:../../../libDaisy/src/hid/audio.h **** 
  45:../../../libDaisy/src/hid/audio.h ****     enum class Result
  46:../../../libDaisy/src/hid/audio.h ****     {
  47:../../../libDaisy/src/hid/audio.h ****         OK,
ARM GAS  C:\Users\skipi\AppData\Local\Temp\ccG6iBdF.s 			page 8


  48:../../../libDaisy/src/hid/audio.h ****         ERR,
  49:../../../libDaisy/src/hid/audio.h ****     };
  50:../../../libDaisy/src/hid/audio.h **** 
  51:../../../libDaisy/src/hid/audio.h ****     /** Non-Interleaving input buffer
  52:../../../libDaisy/src/hid/audio.h ****      * Buffer arranged by float[chn][sample] 
  53:../../../libDaisy/src/hid/audio.h ****      * const so that the user can't modify the input
  54:../../../libDaisy/src/hid/audio.h ****      */
  55:../../../libDaisy/src/hid/audio.h ****     typedef const float* const* InputBuffer;
  56:../../../libDaisy/src/hid/audio.h **** 
  57:../../../libDaisy/src/hid/audio.h ****     /** Non-Interleaving output buffer
  58:../../../libDaisy/src/hid/audio.h ****      * Arranged by float[chn][sample] 
  59:../../../libDaisy/src/hid/audio.h ****      */
  60:../../../libDaisy/src/hid/audio.h ****     typedef float** OutputBuffer;
  61:../../../libDaisy/src/hid/audio.h **** 
  62:../../../libDaisy/src/hid/audio.h ****     /** Type for a Non-Interleaving audio callback 
  63:../../../libDaisy/src/hid/audio.h ****      * Non-Interleaving audio callbacks in daisy will be of this type
  64:../../../libDaisy/src/hid/audio.h ****      */
  65:../../../libDaisy/src/hid/audio.h ****     typedef void (*AudioCallback)(InputBuffer  in,
  66:../../../libDaisy/src/hid/audio.h ****                                   OutputBuffer out,
  67:../../../libDaisy/src/hid/audio.h ****                                   size_t       size);
  68:../../../libDaisy/src/hid/audio.h **** 
  69:../../../libDaisy/src/hid/audio.h ****     /** Interleaving Input buffer
  70:../../../libDaisy/src/hid/audio.h ****      ** audio is prepared as { L0, R0, L1, R1, . . . LN, RN }]
  71:../../../libDaisy/src/hid/audio.h ****      ** this is const, as the user shouldn't modify it
  72:../../../libDaisy/src/hid/audio.h ****     */
  73:../../../libDaisy/src/hid/audio.h ****     typedef const float* InterleavingInputBuffer;
  74:../../../libDaisy/src/hid/audio.h **** 
  75:../../../libDaisy/src/hid/audio.h ****     /** Interleaving Output buffer 
  76:../../../libDaisy/src/hid/audio.h ****      ** audio is prepared as { L0, R0, L1, R1, . . . LN, RN }
  77:../../../libDaisy/src/hid/audio.h ****     */
  78:../../../libDaisy/src/hid/audio.h ****     typedef float* InterleavingOutputBuffer;
  79:../../../libDaisy/src/hid/audio.h **** 
  80:../../../libDaisy/src/hid/audio.h ****     /** Interleaving Audio Callback 
  81:../../../libDaisy/src/hid/audio.h ****      * Interleaving audio callbacks in daisy must be of this type
  82:../../../libDaisy/src/hid/audio.h ****      */
  83:../../../libDaisy/src/hid/audio.h ****     typedef void (*InterleavingAudioCallback)(InterleavingInputBuffer  in,
  84:../../../libDaisy/src/hid/audio.h ****                                               InterleavingOutputBuffer out,
  85:../../../libDaisy/src/hid/audio.h ****                                               size_t                   size);
  86:../../../libDaisy/src/hid/audio.h **** 
  87:../../../libDaisy/src/hid/audio.h ****     AudioHandle() : pimpl_(nullptr) {}
  88:../../../libDaisy/src/hid/audio.h ****     ~AudioHandle() {}
  62              		.loc 6 88 5 is_stmt 1 view .LVU9
  63              		.loc 6 88 5 is_stmt 0 view .LVU10
  64              	.LBE177:
  65              		.loc 1 22 19 view .LVU11
  66 0000 7047     		bx	lr
  67              		.cfi_endproc
  68              	.LFE2729:
  70              		.weak	_ZN5daisy9DaisySeedD1Ev
  71              		.thumb_set _ZN5daisy9DaisySeedD1Ev,_ZN5daisy9DaisySeedD2Ev
  72 0002 00BF     		.section	.text._ZN7daisysp10OscillatorD2Ev,"axG",%progbits,_ZN7daisysp10OscillatorD5Ev,comdat
  73              		.align	1
  74              		.p2align 2,,3
  75              		.weak	_ZN7daisysp10OscillatorD2Ev
  76              		.syntax unified
  77              		.thumb
  78              		.thumb_func
ARM GAS  C:\Users\skipi\AppData\Local\Temp\ccG6iBdF.s 			page 9


  79              		.fpu fpv5-d16
  81              	_ZN7daisysp10OscillatorD2Ev:
  82              	.LVL1:
  83              	.LFB4414:
  84              		.file 7 "../../../DaisySP/Source/Synthesis/oscillator.h"
   1:../../../DaisySP/Source/Synthesis/oscillator.h **** /*
   2:../../../DaisySP/Source/Synthesis/oscillator.h **** Copyright (c) 2020 Electrosmith, Corp
   3:../../../DaisySP/Source/Synthesis/oscillator.h **** 
   4:../../../DaisySP/Source/Synthesis/oscillator.h **** Use of this source code is governed by an MIT-style
   5:../../../DaisySP/Source/Synthesis/oscillator.h **** license that can be found in the LICENSE file or at
   6:../../../DaisySP/Source/Synthesis/oscillator.h **** https://opensource.org/licenses/MIT.
   7:../../../DaisySP/Source/Synthesis/oscillator.h **** */
   8:../../../DaisySP/Source/Synthesis/oscillator.h **** 
   9:../../../DaisySP/Source/Synthesis/oscillator.h **** #pragma once
  10:../../../DaisySP/Source/Synthesis/oscillator.h **** #ifndef DSY_OSCILLATOR_H
  11:../../../DaisySP/Source/Synthesis/oscillator.h **** #define DSY_OSCILLATOR_H
  12:../../../DaisySP/Source/Synthesis/oscillator.h **** #include <stdint.h>
  13:../../../DaisySP/Source/Synthesis/oscillator.h **** #include "Utility/dsp.h"
  14:../../../DaisySP/Source/Synthesis/oscillator.h **** #ifdef __cplusplus
  15:../../../DaisySP/Source/Synthesis/oscillator.h **** 
  16:../../../DaisySP/Source/Synthesis/oscillator.h **** namespace daisysp
  17:../../../DaisySP/Source/Synthesis/oscillator.h **** {
  18:../../../DaisySP/Source/Synthesis/oscillator.h **** /** Synthesis of several waveforms, including polyBLEP bandlimited waveforms.
  19:../../../DaisySP/Source/Synthesis/oscillator.h **** */
  20:../../../DaisySP/Source/Synthesis/oscillator.h **** class Oscillator
  21:../../../DaisySP/Source/Synthesis/oscillator.h **** {
  22:../../../DaisySP/Source/Synthesis/oscillator.h ****   public:
  23:../../../DaisySP/Source/Synthesis/oscillator.h ****     Oscillator() {}
  24:../../../DaisySP/Source/Synthesis/oscillator.h ****     ~Oscillator() {}
  85              		.loc 7 24 5 is_stmt 1 view -0
  86              		.cfi_startproc
  87              		@ args = 0, pretend = 0, frame = 0
  88              		@ frame_needed = 0, uses_anonymous_args = 0
  89              		@ link register save eliminated.
  90              		.loc 7 24 20 is_stmt 0 view .LVU13
  91 0000 7047     		bx	lr
  92              		.cfi_endproc
  93              	.LFE4414:
  95              		.weak	_ZN7daisysp10OscillatorD1Ev
  96              		.thumb_set _ZN7daisysp10OscillatorD1Ev,_ZN7daisysp10OscillatorD2Ev
  97              		.section	.text._Z13AudioCallbackPKPKfPPfj,"ax",%progbits
  98              		.align	1
  99              		.p2align 2,,3
 100              		.global	_Z13AudioCallbackPKPKfPPfj
 101              		.syntax unified
 102              		.thumb
 103              		.thumb_func
 104              		.fpu fpv5-d16
 106              	_Z13AudioCallbackPKPKfPPfj:
 107              	.LVL2:
 108              	.LFB4901:
 109              		.file 8 "main.cpp"
   1:main.cpp      **** #include "daisy_seed.h"
   2:main.cpp      **** #include "daisysp.h"
   3:main.cpp      **** #include "XorM.h"
   4:main.cpp      **** 
   5:main.cpp      **** using namespace daisy;
ARM GAS  C:\Users\skipi\AppData\Local\Temp\ccG6iBdF.s 			page 10


   6:main.cpp      **** using namespace daisysp;
   7:main.cpp      **** 
   8:main.cpp      **** DaisySeed hw;
   9:main.cpp      **** XorM glitch;
  10:main.cpp      **** Oscillator tone;
  11:main.cpp      **** Oscillator mangle;
  12:main.cpp      **** Oscillator carrier;
  13:main.cpp      **** 
  14:main.cpp      **** void AudioCallback(AudioHandle::InputBuffer in, AudioHandle::OutputBuffer out, size_t size)
  15:main.cpp      **** {
 110              		.loc 8 15 1 is_stmt 1 view -0
 111              		.cfi_startproc
 112              		@ args = 0, pretend = 0, frame = 0
 113              		@ frame_needed = 0, uses_anonymous_args = 0
  16:main.cpp      ****     // Process mangle: output is -1.0 to 1.0
  17:main.cpp      ****     // Map it to 0.0 to 1.0 for the mangle parameter
  18:main.cpp      ****     float automation = (mangle.Process() + 1.0f) * 0.5f;
 114              		.loc 8 18 5 view .LVU15
  15:main.cpp      ****     // Process mangle: output is -1.0 to 1.0
 115              		.loc 8 15 1 is_stmt 0 view .LVU16
 116 0000 70B5     		push	{r4, r5, r6, lr}
 117              		.cfi_def_cfa_offset 16
 118              		.cfi_offset 4, -16
 119              		.cfi_offset 5, -12
 120              		.cfi_offset 6, -8
 121              		.cfi_offset 14, -4
 122              		.loc 8 18 39 view .LVU17
 123 0002 1C48     		ldr	r0, .L12
 124              	.LVL3:
  15:main.cpp      ****     // Process mangle: output is -1.0 to 1.0
 125              		.loc 8 15 1 view .LVU18
 126 0004 1646     		mov	r6, r2
 127 0006 0D46     		mov	r5, r1
 128 0008 2DED028B 		vpush.64	{d8}
 129              		.cfi_def_cfa_offset 24
 130              		.cfi_offset 80, -24
 131              		.cfi_offset 81, -20
 132              		.loc 8 18 39 view .LVU19
 133 000c FFF7FEFF 		bl	_ZN7daisysp10Oscillator7ProcessEv
 134              	.LVL4:
  19:main.cpp      ****     glitch.setMangle(automation);
 135              		.loc 8 19 5 is_stmt 1 view .LVU20
  18:main.cpp      ****     glitch.setMangle(automation);
 136              		.loc 8 18 42 is_stmt 0 view .LVU21
 137 0010 B7EE007A 		vmov.f32	s14, #1.0e+0
  18:main.cpp      ****     glitch.setMangle(automation);
 138              		.loc 8 18 52 view .LVU22
 139 0014 F6EE007A 		vmov.f32	s15, #5.0e-1
 140              		.loc 8 19 21 view .LVU23
 141 0018 1748     		ldr	r0, .L12+4
  18:main.cpp      ****     glitch.setMangle(automation);
 142              		.loc 8 18 42 view .LVU24
 143 001a 30EE070A 		vadd.f32	s0, s0, s14
 144              	.LVL5:
 145              		.loc 8 19 21 view .LVU25
 146 001e 20EE270A 		vmul.f32	s0, s0, s15
 147              	.LVL6:
ARM GAS  C:\Users\skipi\AppData\Local\Temp\ccG6iBdF.s 			page 11


 148              		.loc 8 19 21 view .LVU26
 149 0022 FFF7FEFF 		bl	_ZN4XorM9setMangleEf
 150              	.LVL7:
  20:main.cpp      **** 
  21:main.cpp      ****     for(size_t i = 0; i < size; i++)
 151              		.loc 8 21 5 is_stmt 1 view .LVU27
 152              	.LBB178:
 153              		.loc 8 21 25 view .LVU28
 154 0026 16B3     		cbz	r6, .L4
 155              		.loc 8 21 16 is_stmt 0 view .LVU29
 156 0028 0024     		movs	r4, #0
 157              	.LVL8:
 158              	.L6:
 159              	.LBB179:
  22:main.cpp      ****     {
  23:main.cpp      ****         // Generate audio signal
  24:main.cpp      ****         float sig = tone.Process();
 160              		.loc 8 24 9 is_stmt 1 discriminator 2 view .LVU30
 161              		.loc 8 24 33 is_stmt 0 discriminator 2 view .LVU31
 162 002a 1448     		ldr	r0, .L12+8
 163 002c FFF7FEFF 		bl	_ZN7daisysp10Oscillator7ProcessEv
 164              	.LVL9:
  25:main.cpp      ****         float car = carrier.Process();
 165              		.loc 8 25 36 discriminator 2 view .LVU32
 166 0030 1348     		ldr	r0, .L12+12
  24:main.cpp      ****         float car = carrier.Process();
 167              		.loc 8 24 33 discriminator 2 view .LVU33
 168 0032 B0EE408A 		vmov.f32	s16, s0
 169              	.LVL10:
 170              		.loc 8 25 9 is_stmt 1 discriminator 2 view .LVU34
 171              		.loc 8 25 36 is_stmt 0 discriminator 2 view .LVU35
 172 0036 FFF7FEFF 		bl	_ZN7daisysp10Oscillator7ProcessEv
 173              	.LVL11:
  26:main.cpp      ****         float man = mangle.Process();
 174              		.loc 8 26 9 is_stmt 1 discriminator 2 view .LVU36
 175              		.loc 8 26 35 is_stmt 0 discriminator 2 view .LVU37
 176 003a 0E48     		ldr	r0, .L12
 177 003c FFF7FEFF 		bl	_ZN7daisysp10Oscillator7ProcessEv
 178              	.LVL12:
  27:main.cpp      ****         glitch.setMangle(man);
 179              		.loc 8 27 9 is_stmt 1 discriminator 2 view .LVU38
 180              		.loc 8 27 25 is_stmt 0 discriminator 2 view .LVU39
 181 0040 0D48     		ldr	r0, .L12+4
 182 0042 FFF7FEFF 		bl	_ZN4XorM9setMangleEf
 183              	.LVL13:
  28:main.cpp      ****         // Apply effect (Self-modulation for testing)
  29:main.cpp      ****         float wet = glitch.process(sig, 0.0f);
 184              		.loc 8 29 9 is_stmt 1 discriminator 2 view .LVU40
 185              		.loc 8 29 35 is_stmt 0 discriminator 2 view .LVU41
 186 0046 0C48     		ldr	r0, .L12+4
 187 0048 B0EE480A 		vmov.f32	s0, s16
 188 004c DFED0D0A 		vldr.32	s1, .L12+16
 189 0050 FFF7FEFF 		bl	_ZN4XorM7processEff
 190              	.LVL14:
  30:main.cpp      **** 
  31:main.cpp      ****         // Stereo Output
  32:main.cpp      ****         out[0][i] = wet;
ARM GAS  C:\Users\skipi\AppData\Local\Temp\ccG6iBdF.s 			page 12


  33:main.cpp      ****         out[1][i] = wet;
 191              		.loc 8 33 19 discriminator 2 view .LVU42
 192 0054 D5E90003 		ldrd	r0, r3, [r5]
 193              	.LVL15:
  32:main.cpp      ****         out[1][i] = wet;
 194              		.loc 8 32 9 is_stmt 1 discriminator 2 view .LVU43
  32:main.cpp      ****         out[1][i] = wet;
 195              		.loc 8 32 19 is_stmt 0 discriminator 2 view .LVU44
 196 0058 00EB8400 		add	r0, r0, r4, lsl #2
 197              		.loc 8 33 19 discriminator 2 view .LVU45
 198 005c 03EB8403 		add	r3, r3, r4, lsl #2
 199              	.LBE179:
  21:main.cpp      ****     {
 200              		.loc 8 21 5 discriminator 2 view .LVU46
 201 0060 0134     		adds	r4, r4, #1
 202              	.LVL16:
 203              	.LBB180:
  32:main.cpp      ****         out[1][i] = wet;
 204              		.loc 8 32 19 discriminator 2 view .LVU47
 205 0062 80ED000A 		vstr.32	s0, [r0]
 206              		.loc 8 33 9 is_stmt 1 discriminator 2 view .LVU48
 207              	.LBE180:
  21:main.cpp      ****     {
 208              		.loc 8 21 25 is_stmt 0 discriminator 2 view .LVU49
 209 0066 A642     		cmp	r6, r4
 210              	.LBB181:
 211              		.loc 8 33 19 discriminator 2 view .LVU50
 212 0068 83ED000A 		vstr.32	s0, [r3]
 213              	.LBE181:
  21:main.cpp      ****     {
 214              		.loc 8 21 5 is_stmt 1 discriminator 2 view .LVU51
 215              	.LVL17:
  21:main.cpp      ****     {
 216              		.loc 8 21 25 discriminator 2 view .LVU52
 217 006c DDD1     		bne	.L6
 218              	.LVL18:
 219              	.L4:
  21:main.cpp      ****     {
 220              		.loc 8 21 25 is_stmt 0 discriminator 2 view .LVU53
 221              	.LBE178:
  34:main.cpp      ****     }
  35:main.cpp      **** }
 222              		.loc 8 35 1 view .LVU54
 223 006e BDEC028B 		vldm	sp!, {d8}
 224              		.cfi_restore 80
 225              		.cfi_restore 81
 226              		.cfi_def_cfa_offset 16
 227 0072 70BD     		pop	{r4, r5, r6, pc}
 228              	.LVL19:
 229              	.L13:
 230              		.loc 8 35 1 view .LVU55
 231              		.align	2
 232              	.L12:
 233 0074 00000000 		.word	.LANCHOR0
 234 0078 00000000 		.word	.LANCHOR1
 235 007c 00000000 		.word	.LANCHOR2
 236 0080 00000000 		.word	.LANCHOR3
ARM GAS  C:\Users\skipi\AppData\Local\Temp\ccG6iBdF.s 			page 13


 237 0084 00000000 		.word	0
 238              		.cfi_endproc
 239              	.LFE4901:
 241              		.section	.text._ZN7daisysp10Oscillator4InitEf,"axG",%progbits,_ZN7daisysp10Oscillator4InitEf,comda
 242              		.align	1
 243              		.p2align 2,,3
 244              		.weak	_ZN7daisysp10Oscillator4InitEf
 245              		.syntax unified
 246              		.thumb
 247              		.thumb_func
 248              		.fpu fpv5-d16
 250              	_ZN7daisysp10Oscillator4InitEf:
 251              	.LVL20:
 252              	.LFB4416:
  25:../../../DaisySP/Source/Synthesis/oscillator.h ****     /** Choices for output waveforms, POLYBLEP are appropriately labeled. Others are naive forms.
  26:../../../DaisySP/Source/Synthesis/oscillator.h ****     */
  27:../../../DaisySP/Source/Synthesis/oscillator.h ****     enum
  28:../../../DaisySP/Source/Synthesis/oscillator.h ****     {
  29:../../../DaisySP/Source/Synthesis/oscillator.h ****         WAVE_SIN,
  30:../../../DaisySP/Source/Synthesis/oscillator.h ****         WAVE_TRI,
  31:../../../DaisySP/Source/Synthesis/oscillator.h ****         WAVE_SAW,
  32:../../../DaisySP/Source/Synthesis/oscillator.h ****         WAVE_RAMP,
  33:../../../DaisySP/Source/Synthesis/oscillator.h ****         WAVE_SQUARE,
  34:../../../DaisySP/Source/Synthesis/oscillator.h ****         WAVE_POLYBLEP_TRI,
  35:../../../DaisySP/Source/Synthesis/oscillator.h ****         WAVE_POLYBLEP_SAW,
  36:../../../DaisySP/Source/Synthesis/oscillator.h ****         WAVE_POLYBLEP_SQUARE,
  37:../../../DaisySP/Source/Synthesis/oscillator.h ****         WAVE_LAST,
  38:../../../DaisySP/Source/Synthesis/oscillator.h ****     };
  39:../../../DaisySP/Source/Synthesis/oscillator.h **** 
  40:../../../DaisySP/Source/Synthesis/oscillator.h **** 
  41:../../../DaisySP/Source/Synthesis/oscillator.h ****     /** Initializes the Oscillator
  42:../../../DaisySP/Source/Synthesis/oscillator.h **** 
  43:../../../DaisySP/Source/Synthesis/oscillator.h ****         \param sample_rate - sample rate of the audio engine being run, and the frequency that the 
  44:../../../DaisySP/Source/Synthesis/oscillator.h **** 
  45:../../../DaisySP/Source/Synthesis/oscillator.h ****         Defaults:
  46:../../../DaisySP/Source/Synthesis/oscillator.h ****         - freq_ = 100 Hz
  47:../../../DaisySP/Source/Synthesis/oscillator.h ****         - amp_ = 0.5
  48:../../../DaisySP/Source/Synthesis/oscillator.h ****         - waveform_ = sine wave.
  49:../../../DaisySP/Source/Synthesis/oscillator.h ****     */
  50:../../../DaisySP/Source/Synthesis/oscillator.h ****     void Init(float sample_rate)
 253              		.loc 7 50 10 is_stmt 1 view -0
 254              		.cfi_startproc
 255              		@ args = 0, pretend = 0, frame = 0
 256              		@ frame_needed = 0, uses_anonymous_args = 0
  51:../../../DaisySP/Source/Synthesis/oscillator.h ****     {
  52:../../../DaisySP/Source/Synthesis/oscillator.h ****         sr_        = sample_rate;
 257              		.loc 7 52 9 view .LVU57
  50:../../../DaisySP/Source/Synthesis/oscillator.h ****     {
 258              		.loc 7 50 10 is_stmt 0 view .LVU58
 259 0000 F0EE407A 		vmov.f32	s15, s0
  53:../../../DaisySP/Source/Synthesis/oscillator.h ****         sr_recip_  = 1.0f / sample_rate;
  54:../../../DaisySP/Source/Synthesis/oscillator.h ****         freq_      = 100.0f;
  55:../../../DaisySP/Source/Synthesis/oscillator.h ****         amp_       = 0.5f;
 260              		.loc 7 55 20 view .LVU59
 261 0004 4FF07C53 		mov	r3, #1056964608
  53:../../../DaisySP/Source/Synthesis/oscillator.h ****         sr_recip_  = 1.0f / sample_rate;
 262              		.loc 7 53 27 view .LVU60
ARM GAS  C:\Users\skipi\AppData\Local\Temp\ccG6iBdF.s 			page 14


 263 0008 F7EE006A 		vmov.f32	s13, #1.0e+0
  56:../../../DaisySP/Source/Synthesis/oscillator.h ****         pw_        = 0.5f;
  57:../../../DaisySP/Source/Synthesis/oscillator.h ****         phase_     = 0.0f;
 264              		.loc 7 57 20 view .LVU61
 265 000c 0022     		movs	r2, #0
  54:../../../DaisySP/Source/Synthesis/oscillator.h ****         amp_       = 0.5f;
 266              		.loc 7 54 20 view .LVU62
 267 000e 9FED0C0A 		vldr.32	s0, .L16
 268              	.LVL21:
  55:../../../DaisySP/Source/Synthesis/oscillator.h ****         pw_        = 0.5f;
 269              		.loc 7 55 20 view .LVU63
 270 0012 4360     		str	r3, [r0, #4]	@ float
  53:../../../DaisySP/Source/Synthesis/oscillator.h ****         freq_      = 100.0f;
 271              		.loc 7 53 27 view .LVU64
 272 0014 86EEA77A 		vdiv.f32	s14, s13, s15
  56:../../../DaisySP/Source/Synthesis/oscillator.h ****         phase_     = 0.0f;
 273              		.loc 7 56 20 view .LVU65
 274 0018 C360     		str	r3, [r0, #12]	@ float
 275              		.loc 7 57 20 view .LVU66
 276 001a 8261     		str	r2, [r0, #24]	@ float
  52:../../../DaisySP/Source/Synthesis/oscillator.h ****         sr_recip_  = 1.0f / sample_rate;
 277              		.loc 7 52 20 view .LVU67
 278 001c C0ED047A 		vstr.32	s15, [r0, #16]
  53:../../../DaisySP/Source/Synthesis/oscillator.h ****         freq_      = 100.0f;
 279              		.loc 7 53 9 is_stmt 1 view .LVU68
  54:../../../DaisySP/Source/Synthesis/oscillator.h ****         amp_       = 0.5f;
 280              		.loc 7 54 20 is_stmt 0 view .LVU69
 281 0020 80ED020A 		vstr.32	s0, [r0, #8]
  50:../../../DaisySP/Source/Synthesis/oscillator.h ****     {
 282              		.loc 7 50 10 view .LVU70
 283 0024 10B5     		push	{r4, lr}
 284              		.cfi_def_cfa_offset 8
 285              		.cfi_offset 4, -8
 286              		.cfi_offset 14, -4
  50:../../../DaisySP/Source/Synthesis/oscillator.h ****     {
 287              		.loc 7 50 10 view .LVU71
 288 0026 0446     		mov	r4, r0
  53:../../../DaisySP/Source/Synthesis/oscillator.h ****         freq_      = 100.0f;
 289              		.loc 7 53 20 view .LVU72
 290 0028 80ED057A 		vstr.32	s14, [r0, #20]
  54:../../../DaisySP/Source/Synthesis/oscillator.h ****         amp_       = 0.5f;
 291              		.loc 7 54 9 is_stmt 1 view .LVU73
  55:../../../DaisySP/Source/Synthesis/oscillator.h ****         pw_        = 0.5f;
 292              		.loc 7 55 9 view .LVU74
  56:../../../DaisySP/Source/Synthesis/oscillator.h ****         phase_     = 0.0f;
 293              		.loc 7 56 9 view .LVU75
 294              		.loc 7 57 9 view .LVU76
  58:../../../DaisySP/Source/Synthesis/oscillator.h ****         phase_inc_ = CalcPhaseInc(freq_);
 295              		.loc 7 58 9 view .LVU77
 296              		.loc 7 58 34 is_stmt 0 view .LVU78
 297 002c FFF7FEFF 		bl	_ZN7daisysp10Oscillator12CalcPhaseIncEf
 298              	.LVL22:
  59:../../../DaisySP/Source/Synthesis/oscillator.h ****         waveform_  = WAVE_SIN;
 299              		.loc 7 59 20 view .LVU79
 300 0030 0022     		movs	r2, #0
  60:../../../DaisySP/Source/Synthesis/oscillator.h ****         eoc_       = true;
  61:../../../DaisySP/Source/Synthesis/oscillator.h ****         eor_       = true;
ARM GAS  C:\Users\skipi\AppData\Local\Temp\ccG6iBdF.s 			page 15


 301              		.loc 7 61 20 view .LVU80
 302 0032 40F20113 		movw	r3, #257
  58:../../../DaisySP/Source/Synthesis/oscillator.h ****         waveform_  = WAVE_SIN;
 303              		.loc 7 58 20 view .LVU81
 304 0036 84ED070A 		vstr.32	s0, [r4, #28]
  59:../../../DaisySP/Source/Synthesis/oscillator.h ****         waveform_  = WAVE_SIN;
 305              		.loc 7 59 9 is_stmt 1 view .LVU82
  59:../../../DaisySP/Source/Synthesis/oscillator.h ****         waveform_  = WAVE_SIN;
 306              		.loc 7 59 20 is_stmt 0 view .LVU83
 307 003a 2270     		strb	r2, [r4]
  60:../../../DaisySP/Source/Synthesis/oscillator.h ****         eoc_       = true;
 308              		.loc 7 60 9 is_stmt 1 view .LVU84
 309              		.loc 7 61 9 view .LVU85
 310              		.loc 7 61 20 is_stmt 0 view .LVU86
 311 003c 2385     		strh	r3, [r4, #40]	@ movhi
  62:../../../DaisySP/Source/Synthesis/oscillator.h ****     }
 312              		.loc 7 62 5 view .LVU87
 313 003e 10BD     		pop	{r4, pc}
 314              	.LVL23:
 315              	.L17:
 316              		.loc 7 62 5 view .LVU88
 317              		.align	2
 318              	.L16:
 319 0040 0000C842 		.word	1120403456
 320              		.cfi_endproc
 321              	.LFE4416:
 323              		.section	.text.startup.main,"ax",%progbits
 324              		.align	1
 325              		.p2align 2,,3
 326              		.global	main
 327              		.syntax unified
 328              		.thumb
 329              		.thumb_func
 330              		.fpu fpv5-d16
 332              	main:
 333              	.LFB4902:
  36:main.cpp      **** 
  37:main.cpp      **** int main(void)
  38:main.cpp      **** {
 334              		.loc 8 38 1 is_stmt 1 view -0
 335              		.cfi_startproc
 336              		@ args = 0, pretend = 0, frame = 0
 337              		@ frame_needed = 0, uses_anonymous_args = 0
  39:main.cpp      ****     // Hardware Setup
  40:main.cpp      ****     hw.Init();
 338              		.loc 8 40 5 view .LVU90
  38:main.cpp      ****     // Hardware Setup
 339              		.loc 8 38 1 is_stmt 0 view .LVU91
 340 0000 F8B5     		push	{r3, r4, r5, r6, r7, lr}
 341              		.cfi_def_cfa_offset 24
 342              		.cfi_offset 3, -24
 343              		.cfi_offset 4, -20
 344              		.cfi_offset 5, -16
 345              		.cfi_offset 6, -12
 346              		.cfi_offset 7, -8
 347              		.cfi_offset 14, -4
 348              		.loc 8 40 12 view .LVU92
ARM GAS  C:\Users\skipi\AppData\Local\Temp\ccG6iBdF.s 			page 16


 349 0002 0021     		movs	r1, #0
 350 0004 2948     		ldr	r0, .L21
  41:main.cpp      ****     hw.SetAudioBlockSize(4);
  42:main.cpp      ****     float sample_rate = hw.AudioSampleRate();
  43:main.cpp      **** 
  44:main.cpp      ****     // Effect Init
  45:main.cpp      ****     glitch.init();
  46:main.cpp      **** 
  47:main.cpp      ****     // Audio Oscillator Setup (Sine, 110Hz, 50% vol)
  48:main.cpp      ****     tone.Init(sample_rate);
 351              		.loc 8 48 14 view .LVU93
 352 0006 2A4C     		ldr	r4, .L21+4
 353              	.LBB182:
 354              	.LBB183:
  63:../../../DaisySP/Source/Synthesis/oscillator.h **** 
  64:../../../DaisySP/Source/Synthesis/oscillator.h **** 
  65:../../../DaisySP/Source/Synthesis/oscillator.h ****     /** Changes the frequency of the Oscillator, and recalculates phase increment.
  66:../../../DaisySP/Source/Synthesis/oscillator.h ****     */
  67:../../../DaisySP/Source/Synthesis/oscillator.h ****     inline void SetFreq(const float f)
  68:../../../DaisySP/Source/Synthesis/oscillator.h ****     {
  69:../../../DaisySP/Source/Synthesis/oscillator.h ****         freq_      = f;
  70:../../../DaisySP/Source/Synthesis/oscillator.h ****         phase_inc_ = CalcPhaseInc(f);
  71:../../../DaisySP/Source/Synthesis/oscillator.h ****     }
  72:../../../DaisySP/Source/Synthesis/oscillator.h **** 
  73:../../../DaisySP/Source/Synthesis/oscillator.h **** 
  74:../../../DaisySP/Source/Synthesis/oscillator.h ****     /** Sets the amplitude of the waveform.
  75:../../../DaisySP/Source/Synthesis/oscillator.h ****     */
  76:../../../DaisySP/Source/Synthesis/oscillator.h ****     inline void SetAmp(const float a) { amp_ = a; }
  77:../../../DaisySP/Source/Synthesis/oscillator.h ****     /** Sets the waveform to be synthesized by the Process() function.
  78:../../../DaisySP/Source/Synthesis/oscillator.h ****     */
  79:../../../DaisySP/Source/Synthesis/oscillator.h ****     inline void SetWaveform(const uint8_t wf)
  80:../../../DaisySP/Source/Synthesis/oscillator.h ****     {
  81:../../../DaisySP/Source/Synthesis/oscillator.h ****         waveform_ = wf < WAVE_LAST ? wf : WAVE_SIN;
 355              		.loc 7 81 19 view .LVU94
 356 0008 0027     		movs	r7, #0
 357              	.LBE183:
 358              	.LBE182:
  49:main.cpp      ****     tone.SetWaveform(Oscillator::WAVE_SIN);
  50:main.cpp      ****     tone.SetFreq(440.0f); 
  51:main.cpp      ****     tone.SetAmp(0.5f);
  52:main.cpp      **** 
  53:main.cpp      ****     // Automation mangle Setup (Triangle, 0.1Hz)
  54:main.cpp      ****     mangle.Init(sample_rate);
 359              		.loc 8 54 16 view .LVU95
 360 000a 2A4D     		ldr	r5, .L21+8
 361              	.LBB186:
 362              	.LBB187:
  76:../../../DaisySP/Source/Synthesis/oscillator.h ****     /** Sets the waveform to be synthesized by the Process() function.
 363              		.loc 7 76 46 view .LVU96
 364 000c 4FF07E56 		mov	r6, #1065353216
 365              	.LBE187:
 366              	.LBE186:
  38:main.cpp      ****     // Hardware Setup
 367              		.loc 8 38 1 view .LVU97
 368 0010 2DED028B 		vpush.64	{d8}
 369              		.cfi_def_cfa_offset 32
 370              		.cfi_offset 80, -32
ARM GAS  C:\Users\skipi\AppData\Local\Temp\ccG6iBdF.s 			page 17


 371              		.cfi_offset 81, -28
  40:main.cpp      ****     hw.SetAudioBlockSize(4);
 372              		.loc 8 40 12 view .LVU98
 373 0014 FFF7FEFF 		bl	_ZN5daisy9DaisySeed4InitEb
 374              	.LVL24:
  41:main.cpp      ****     float sample_rate = hw.AudioSampleRate();
 375              		.loc 8 41 5 is_stmt 1 view .LVU99
  41:main.cpp      ****     float sample_rate = hw.AudioSampleRate();
 376              		.loc 8 41 25 is_stmt 0 view .LVU100
 377 0018 0421     		movs	r1, #4
 378 001a 2448     		ldr	r0, .L21
 379 001c FFF7FEFF 		bl	_ZN5daisy9DaisySeed17SetAudioBlockSizeEj
 380              	.LVL25:
  42:main.cpp      **** 
 381              		.loc 8 42 5 is_stmt 1 view .LVU101
  42:main.cpp      **** 
 382              		.loc 8 42 43 is_stmt 0 view .LVU102
 383 0020 2248     		ldr	r0, .L21
 384 0022 FFF7FEFF 		bl	_ZN5daisy9DaisySeed15AudioSampleRateEv
 385              	.LVL26:
 386 0026 B0EE408A 		vmov.f32	s16, s0
 387              	.LVL27:
  45:main.cpp      **** 
 388              		.loc 8 45 5 is_stmt 1 view .LVU103
  45:main.cpp      **** 
 389              		.loc 8 45 16 is_stmt 0 view .LVU104
 390 002a 2348     		ldr	r0, .L21+12
 391 002c FFF7FEFF 		bl	_ZN4XorM4initEv
 392              	.LVL28:
  48:main.cpp      ****     tone.SetWaveform(Oscillator::WAVE_SIN);
 393              		.loc 8 48 5 is_stmt 1 view .LVU105
  48:main.cpp      ****     tone.SetWaveform(Oscillator::WAVE_SIN);
 394              		.loc 8 48 14 is_stmt 0 view .LVU106
 395 0030 2046     		mov	r0, r4
 396 0032 B0EE480A 		vmov.f32	s0, s16
 397 0036 FFF7FEFF 		bl	_ZN7daisysp10Oscillator4InitEf
 398              	.LVL29:
  49:main.cpp      ****     tone.SetFreq(440.0f); 
 399              		.loc 8 49 5 is_stmt 1 view .LVU107
 400              	.LBB190:
 401              	.LBI182:
  79:../../../DaisySP/Source/Synthesis/oscillator.h ****     {
 402              		.loc 7 79 17 view .LVU108
 403              	.LBB184:
 404              		.loc 7 81 9 view .LVU109
 405              	.LBE184:
 406              	.LBE190:
 407              	.LBB191:
 408              	.LBB192:
  69:../../../DaisySP/Source/Synthesis/oscillator.h ****         phase_inc_ = CalcPhaseInc(f);
 409              		.loc 7 69 20 is_stmt 0 view .LVU110
 410 003a 9FED200A 		vldr.32	s0, .L21+16
  70:../../../DaisySP/Source/Synthesis/oscillator.h ****     }
 411              		.loc 7 70 34 view .LVU111
 412 003e 2046     		mov	r0, r4
 413              	.LBE192:
 414              	.LBE191:
ARM GAS  C:\Users\skipi\AppData\Local\Temp\ccG6iBdF.s 			page 18


 415              	.LBB195:
 416              	.LBB185:
 417              		.loc 7 81 19 view .LVU112
 418 0040 2770     		strb	r7, [r4]
 419              	.LVL30:
 420              		.loc 7 81 19 view .LVU113
 421              	.LBE185:
 422              	.LBE195:
  50:main.cpp      ****     tone.SetAmp(0.5f);
 423              		.loc 8 50 5 is_stmt 1 view .LVU114
 424              	.LBB196:
 425              	.LBI191:
  67:../../../DaisySP/Source/Synthesis/oscillator.h ****     {
 426              		.loc 7 67 17 view .LVU115
 427              	.LBB193:
  69:../../../DaisySP/Source/Synthesis/oscillator.h ****         phase_inc_ = CalcPhaseInc(f);
 428              		.loc 7 69 9 view .LVU116
  69:../../../DaisySP/Source/Synthesis/oscillator.h ****         phase_inc_ = CalcPhaseInc(f);
 429              		.loc 7 69 20 is_stmt 0 view .LVU117
 430 0042 84ED020A 		vstr.32	s0, [r4, #8]
  70:../../../DaisySP/Source/Synthesis/oscillator.h ****     }
 431              		.loc 7 70 9 is_stmt 1 view .LVU118
  70:../../../DaisySP/Source/Synthesis/oscillator.h ****     }
 432              		.loc 7 70 34 is_stmt 0 view .LVU119
 433 0046 FFF7FEFF 		bl	_ZN7daisysp10Oscillator12CalcPhaseIncEf
 434              	.LVL31:
 435 004a F0EE407A 		vmov.f32	s15, s0
 436              	.LBE193:
 437              	.LBE196:
 438              	.LBB197:
 439              	.LBB198:
  76:../../../DaisySP/Source/Synthesis/oscillator.h ****     /** Sets the waveform to be synthesized by the Process() function.
 440              		.loc 7 76 46 view .LVU120
 441 004e 4FF07C53 		mov	r3, #1056964608
 442              	.LBE198:
 443              	.LBE197:
 444              		.loc 8 54 16 view .LVU121
 445 0052 B0EE480A 		vmov.f32	s0, s16
 446 0056 2846     		mov	r0, r5
 447              	.LBB201:
 448              	.LBB199:
  76:../../../DaisySP/Source/Synthesis/oscillator.h ****     /** Sets the waveform to be synthesized by the Process() function.
 449              		.loc 7 76 46 view .LVU122
 450 0058 6360     		str	r3, [r4, #4]	@ float
 451              	.LBE199:
 452              	.LBE201:
 453              	.LBB202:
 454              	.LBB194:
  70:../../../DaisySP/Source/Synthesis/oscillator.h ****     }
 455              		.loc 7 70 20 view .LVU123
 456 005a C4ED077A 		vstr.32	s15, [r4, #28]
 457              	.LVL32:
  70:../../../DaisySP/Source/Synthesis/oscillator.h ****     }
 458              		.loc 7 70 20 view .LVU124
 459              	.LBE194:
 460              	.LBE202:
  51:main.cpp      **** 
ARM GAS  C:\Users\skipi\AppData\Local\Temp\ccG6iBdF.s 			page 19


 461              		.loc 8 51 5 is_stmt 1 view .LVU125
 462              	.LBB203:
 463              	.LBI197:
  76:../../../DaisySP/Source/Synthesis/oscillator.h ****     /** Sets the waveform to be synthesized by the Process() function.
 464              		.loc 7 76 17 view .LVU126
 465              	.LBB200:
  76:../../../DaisySP/Source/Synthesis/oscillator.h ****     /** Sets the waveform to be synthesized by the Process() function.
 466              		.loc 7 76 41 view .LVU127
  76:../../../DaisySP/Source/Synthesis/oscillator.h ****     /** Sets the waveform to be synthesized by the Process() function.
 467              		.loc 7 76 41 is_stmt 0 view .LVU128
 468              	.LBE200:
 469              	.LBE203:
 470              		.loc 8 54 5 is_stmt 1 view .LVU129
 471              		.loc 8 54 16 is_stmt 0 view .LVU130
 472 005e FFF7FEFF 		bl	_ZN7daisysp10Oscillator4InitEf
 473              	.LVL33:
  55:main.cpp      ****     mangle.SetWaveform(Oscillator::WAVE_TRI);
 474              		.loc 8 55 5 is_stmt 1 view .LVU131
 475              	.LBB204:
 476              	.LBI204:
  79:../../../DaisySP/Source/Synthesis/oscillator.h ****     {
 477              		.loc 7 79 17 view .LVU132
 478              	.LBB205:
 479              		.loc 7 81 9 view .LVU133
 480              		.loc 7 81 19 is_stmt 0 view .LVU134
 481 0062 0123     		movs	r3, #1
 482              	.LBE205:
 483              	.LBE204:
 484              	.LBB207:
 485              	.LBB208:
  69:../../../DaisySP/Source/Synthesis/oscillator.h ****         phase_inc_ = CalcPhaseInc(f);
 486              		.loc 7 69 20 view .LVU135
 487 0064 9FED160A 		vldr.32	s0, .L21+20
  70:../../../DaisySP/Source/Synthesis/oscillator.h ****     }
 488              		.loc 7 70 34 view .LVU136
 489 0068 2846     		mov	r0, r5
 490              	.LBE208:
 491              	.LBE207:
  56:main.cpp      ****     mangle.SetFreq(0.1f); 
  57:main.cpp      ****     mangle.SetAmp(1.0f);
  58:main.cpp      ****     
  59:main.cpp      **** 
  60:main.cpp      ****     carrier.Init(sample_rate);
 492              		.loc 8 60 17 view .LVU137
 493 006a 164C     		ldr	r4, .L21+24
 494              	.LBB211:
 495              	.LBB206:
 496              		.loc 7 81 19 view .LVU138
 497 006c 2B70     		strb	r3, [r5]
 498              	.LVL34:
 499              		.loc 7 81 19 view .LVU139
 500              	.LBE206:
 501              	.LBE211:
  56:main.cpp      ****     mangle.SetFreq(0.1f); 
 502              		.loc 8 56 5 is_stmt 1 view .LVU140
 503              	.LBB212:
 504              	.LBI207:
ARM GAS  C:\Users\skipi\AppData\Local\Temp\ccG6iBdF.s 			page 20


  67:../../../DaisySP/Source/Synthesis/oscillator.h ****     {
 505              		.loc 7 67 17 view .LVU141
 506              	.LBB209:
  69:../../../DaisySP/Source/Synthesis/oscillator.h ****         phase_inc_ = CalcPhaseInc(f);
 507              		.loc 7 69 9 view .LVU142
  69:../../../DaisySP/Source/Synthesis/oscillator.h ****         phase_inc_ = CalcPhaseInc(f);
 508              		.loc 7 69 20 is_stmt 0 view .LVU143
 509 006e 85ED020A 		vstr.32	s0, [r5, #8]
  70:../../../DaisySP/Source/Synthesis/oscillator.h ****     }
 510              		.loc 7 70 9 is_stmt 1 view .LVU144
  70:../../../DaisySP/Source/Synthesis/oscillator.h ****     }
 511              		.loc 7 70 34 is_stmt 0 view .LVU145
 512 0072 FFF7FEFF 		bl	_ZN7daisysp10Oscillator12CalcPhaseIncEf
 513              	.LVL35:
 514 0076 F0EE407A 		vmov.f32	s15, s0
 515              	.LBE209:
 516              	.LBE212:
 517              		.loc 8 60 17 view .LVU146
 518 007a 2046     		mov	r0, r4
 519 007c B0EE480A 		vmov.f32	s0, s16
 520              	.LBB213:
 521              	.LBB188:
  76:../../../DaisySP/Source/Synthesis/oscillator.h ****     /** Sets the waveform to be synthesized by the Process() function.
 522              		.loc 7 76 46 view .LVU147
 523 0080 6E60     		str	r6, [r5, #4]	@ float
 524              	.LBE188:
 525              	.LBE213:
 526              	.LBB214:
 527              	.LBB210:
  70:../../../DaisySP/Source/Synthesis/oscillator.h ****     }
 528              		.loc 7 70 20 view .LVU148
 529 0082 C5ED077A 		vstr.32	s15, [r5, #28]
 530              	.LVL36:
  70:../../../DaisySP/Source/Synthesis/oscillator.h ****     }
 531              		.loc 7 70 20 view .LVU149
 532              	.LBE210:
 533              	.LBE214:
  57:main.cpp      ****     
 534              		.loc 8 57 5 is_stmt 1 view .LVU150
 535              	.LBB215:
 536              	.LBI186:
  76:../../../DaisySP/Source/Synthesis/oscillator.h ****     /** Sets the waveform to be synthesized by the Process() function.
 537              		.loc 7 76 17 view .LVU151
 538              	.LBB189:
  76:../../../DaisySP/Source/Synthesis/oscillator.h ****     /** Sets the waveform to be synthesized by the Process() function.
 539              		.loc 7 76 41 view .LVU152
  76:../../../DaisySP/Source/Synthesis/oscillator.h ****     /** Sets the waveform to be synthesized by the Process() function.
 540              		.loc 7 76 41 is_stmt 0 view .LVU153
 541              	.LBE189:
 542              	.LBE215:
 543              		.loc 8 60 5 is_stmt 1 view .LVU154
 544              		.loc 8 60 17 is_stmt 0 view .LVU155
 545 0086 FFF7FEFF 		bl	_ZN7daisysp10Oscillator4InitEf
 546              	.LVL37:
  61:main.cpp      ****     carrier.SetWaveform(Oscillator::WAVE_SIN);
 547              		.loc 8 61 5 is_stmt 1 view .LVU156
 548              	.LBB216:
ARM GAS  C:\Users\skipi\AppData\Local\Temp\ccG6iBdF.s 			page 21


 549              	.LBI216:
  79:../../../DaisySP/Source/Synthesis/oscillator.h ****     {
 550              		.loc 7 79 17 view .LVU157
 551              	.LBB217:
 552              		.loc 7 81 9 view .LVU158
 553              	.LBE217:
 554              	.LBE216:
 555              	.LBB219:
 556              	.LBB220:
  69:../../../DaisySP/Source/Synthesis/oscillator.h ****         phase_inc_ = CalcPhaseInc(f);
 557              		.loc 7 69 20 is_stmt 0 view .LVU159
 558 008a 9FED0F0A 		vldr.32	s0, .L21+28
  70:../../../DaisySP/Source/Synthesis/oscillator.h ****     }
 559              		.loc 7 70 34 view .LVU160
 560 008e 2046     		mov	r0, r4
 561              	.LBE220:
 562              	.LBE219:
 563              	.LBB223:
 564              	.LBB218:
 565              		.loc 7 81 19 view .LVU161
 566 0090 2770     		strb	r7, [r4]
 567              	.LVL38:
 568              		.loc 7 81 19 view .LVU162
 569              	.LBE218:
 570              	.LBE223:
  62:main.cpp      ****     carrier.SetFreq(50.0f); 
 571              		.loc 8 62 5 is_stmt 1 view .LVU163
 572              	.LBB224:
 573              	.LBI219:
  67:../../../DaisySP/Source/Synthesis/oscillator.h ****     {
 574              		.loc 7 67 17 view .LVU164
 575              	.LBB221:
  69:../../../DaisySP/Source/Synthesis/oscillator.h ****         phase_inc_ = CalcPhaseInc(f);
 576              		.loc 7 69 9 view .LVU165
  69:../../../DaisySP/Source/Synthesis/oscillator.h ****         phase_inc_ = CalcPhaseInc(f);
 577              		.loc 7 69 20 is_stmt 0 view .LVU166
 578 0092 84ED020A 		vstr.32	s0, [r4, #8]
  70:../../../DaisySP/Source/Synthesis/oscillator.h ****     }
 579              		.loc 7 70 9 is_stmt 1 view .LVU167
  70:../../../DaisySP/Source/Synthesis/oscillator.h ****     }
 580              		.loc 7 70 34 is_stmt 0 view .LVU168
 581 0096 FFF7FEFF 		bl	_ZN7daisysp10Oscillator12CalcPhaseIncEf
 582              	.LVL39:
 583              	.LBE221:
 584              	.LBE224:
  63:main.cpp      ****     carrier.SetAmp(1.0f);
  64:main.cpp      **** 
  65:main.cpp      ****     // Start
  66:main.cpp      ****     hw.StartAudio(AudioCallback);
 585              		.loc 8 66 18 view .LVU169
 586 009a 0C49     		ldr	r1, .L21+32
 587 009c 0348     		ldr	r0, .L21
 588              	.LBB225:
 589              	.LBB222:
  70:../../../DaisySP/Source/Synthesis/oscillator.h ****     }
 590              		.loc 7 70 20 view .LVU170
 591 009e 84ED070A 		vstr.32	s0, [r4, #28]
ARM GAS  C:\Users\skipi\AppData\Local\Temp\ccG6iBdF.s 			page 22


 592              	.LVL40:
  70:../../../DaisySP/Source/Synthesis/oscillator.h ****     }
 593              		.loc 7 70 20 view .LVU171
 594              	.LBE222:
 595              	.LBE225:
  63:main.cpp      ****     carrier.SetAmp(1.0f);
 596              		.loc 8 63 5 is_stmt 1 view .LVU172
 597              	.LBB226:
 598              	.LBI226:
  76:../../../DaisySP/Source/Synthesis/oscillator.h ****     /** Sets the waveform to be synthesized by the Process() function.
 599              		.loc 7 76 17 view .LVU173
 600              	.LBB227:
  76:../../../DaisySP/Source/Synthesis/oscillator.h ****     /** Sets the waveform to be synthesized by the Process() function.
 601              		.loc 7 76 41 view .LVU174
  76:../../../DaisySP/Source/Synthesis/oscillator.h ****     /** Sets the waveform to be synthesized by the Process() function.
 602              		.loc 7 76 46 is_stmt 0 view .LVU175
 603 00a2 6660     		str	r6, [r4, #4]	@ float
 604              	.LVL41:
  76:../../../DaisySP/Source/Synthesis/oscillator.h ****     /** Sets the waveform to be synthesized by the Process() function.
 605              		.loc 7 76 46 view .LVU176
 606              	.LBE227:
 607              	.LBE226:
 608              		.loc 8 66 5 is_stmt 1 view .LVU177
 609              		.loc 8 66 18 is_stmt 0 view .LVU178
 610 00a4 FFF7FEFF 		bl	_ZN5daisy9DaisySeed10StartAudioEPFvPKPKfPPfjE
 611              	.LVL42:
 612              	.L19:
  67:main.cpp      **** 
  68:main.cpp      ****     while(1) {}
 613              		.loc 8 68 5 is_stmt 1 discriminator 1 view .LVU179
 614              		.loc 8 68 5 discriminator 1 view .LVU180
 615              		.loc 8 68 5 discriminator 1 view .LVU181
 616              		.loc 8 68 5 discriminator 1 view .LVU182
 617 00a8 FEE7     		b	.L19
 618              	.L22:
 619 00aa 00BF     		.align	2
 620              	.L21:
 621 00ac 00000000 		.word	.LANCHOR4
 622 00b0 00000000 		.word	.LANCHOR2
 623 00b4 00000000 		.word	.LANCHOR0
 624 00b8 00000000 		.word	.LANCHOR1
 625 00bc 0000DC43 		.word	1138491392
 626 00c0 CDCCCC3D 		.word	1036831949
 627 00c4 00000000 		.word	.LANCHOR3
 628 00c8 00004842 		.word	1112014848
 629 00cc 00000000 		.word	_Z13AudioCallbackPKPKfPPfj
 630              		.cfi_endproc
 631              	.LFE4902:
 633              		.section	.text.startup._GLOBAL__sub_I_hw,"ax",%progbits
 634              		.align	1
 635              		.p2align 2,,3
 636              		.syntax unified
 637              		.thumb
 638              		.thumb_func
 639              		.fpu fpv5-d16
 641              	_GLOBAL__sub_I_hw:
 642              	.LFB5469:
ARM GAS  C:\Users\skipi\AppData\Local\Temp\ccG6iBdF.s 			page 23


  69:main.cpp      **** }...
 643              		.loc 8 69 1 view -0
 644              		.cfi_startproc
 645              		@ args = 0, pretend = 0, frame = 0
 646              		@ frame_needed = 0, uses_anonymous_args = 0
 647              	.LBB300:
 648              	.LBI300:
 649              		.loc 8 69 1 view .LVU184
 650              	.LVL43:
 651              	.LBB301:
 652              	.LBB302:
 653              	.LBI302:
  21:../../../libDaisy/src/daisy_seed.h ****     ~DaisySeed() {}
 654              		.loc 1 21 5 view .LVU185
 655              	.LBB303:
 656              	.LBB304:
 657              	.LBI304:
 658              		.file 9 "../../../libDaisy/src/per/qspi.h"
   1:../../../libDaisy/src/per/qspi.h **** #ifndef DSY_QSPI
   2:../../../libDaisy/src/per/qspi.h **** #define DSY_QSPI /**< Macro */
   3:../../../libDaisy/src/per/qspi.h **** 
   4:../../../libDaisy/src/per/qspi.h **** #ifndef UNIT_TEST // for unit tests, a dummy implementation
   5:../../../libDaisy/src/per/qspi.h **** 
   6:../../../libDaisy/src/per/qspi.h **** #include <cstdint>
   7:../../../libDaisy/src/per/qspi.h **** #include "daisy_core.h"
   8:../../../libDaisy/src/per/qspi.h **** #include "util/hal_map.h"
   9:../../../libDaisy/src/per/qspi.h **** 
  10:../../../libDaisy/src/per/qspi.h **** #define DSY_QSPI_TEXT       \
  11:../../../libDaisy/src/per/qspi.h ****     __attribute__((section( \
  12:../../../libDaisy/src/per/qspi.h ****         ".qspiflash_text"))) /**< used for reading memory in memory_mapped mode. */
  13:../../../libDaisy/src/per/qspi.h **** #define DSY_QSPI_DATA       \
  14:../../../libDaisy/src/per/qspi.h ****     __attribute__((section( \
  15:../../../libDaisy/src/per/qspi.h ****         ".qspiflash_data"))) /**< used for reading memory in memory_mapped mode. */
  16:../../../libDaisy/src/per/qspi.h **** #define DSY_QSPI_BSS        \
  17:../../../libDaisy/src/per/qspi.h ****     __attribute__((section( \
  18:../../../libDaisy/src/per/qspi.h ****         ".qspiflash_bss"))) /**< used for reading memory in memory_mapped mode. */
  19:../../../libDaisy/src/per/qspi.h **** 
  20:../../../libDaisy/src/per/qspi.h **** namespace daisy
  21:../../../libDaisy/src/per/qspi.h **** {
  22:../../../libDaisy/src/per/qspi.h **** /** @addtogroup serial
  23:../../../libDaisy/src/per/qspi.h **** @{
  24:../../../libDaisy/src/per/qspi.h **** */
  25:../../../libDaisy/src/per/qspi.h **** 
  26:../../../libDaisy/src/per/qspi.h **** /**
  27:../../../libDaisy/src/per/qspi.h ****  Driver for QSPI peripheral to interface with external flash memory. \n
  28:../../../libDaisy/src/per/qspi.h ****     Currently supported QSPI Devices: \n
  29:../../../libDaisy/src/per/qspi.h ****     * IS25LP080D
  30:../../../libDaisy/src/per/qspi.h **** */
  31:../../../libDaisy/src/per/qspi.h **** class QSPIHandle
  32:../../../libDaisy/src/per/qspi.h **** {
  33:../../../libDaisy/src/per/qspi.h ****   public:
  34:../../../libDaisy/src/per/qspi.h ****     enum Result
  35:../../../libDaisy/src/per/qspi.h ****     {
  36:../../../libDaisy/src/per/qspi.h ****         OK = 0,
  37:../../../libDaisy/src/per/qspi.h ****         ERR
  38:../../../libDaisy/src/per/qspi.h ****     };
  39:../../../libDaisy/src/per/qspi.h **** 
ARM GAS  C:\Users\skipi\AppData\Local\Temp\ccG6iBdF.s 			page 24


  40:../../../libDaisy/src/per/qspi.h ****     /** Indicates the current status of the module.
  41:../../../libDaisy/src/per/qspi.h ****          *  Warnings are indicated by a leading W.
  42:../../../libDaisy/src/per/qspi.h ****          *  Errors are indicated by a leading E and cause an immediate exit.
  43:../../../libDaisy/src/per/qspi.h ****          *
  44:../../../libDaisy/src/per/qspi.h ****          *  \param GOOD - No errors have been reported.
  45:../../../libDaisy/src/per/qspi.h ****          *  \param E_HAL_ERROR - HAL code did not return HAL_OK.
  46:../../../libDaisy/src/per/qspi.h ****          *  \param E_SWITCHING_MODES - An error was encountered while switching QSPI peripheral mod
  47:../../../libDaisy/src/per/qspi.h ****          *  \param E_INVALID_MODE - QSPI should not be written to while the program is executing fr
  48:../../../libDaisy/src/per/qspi.h ****          */
  49:../../../libDaisy/src/per/qspi.h ****     enum Status
  50:../../../libDaisy/src/per/qspi.h ****     {
  51:../../../libDaisy/src/per/qspi.h ****         GOOD = 0,
  52:../../../libDaisy/src/per/qspi.h ****         E_HAL_ERROR,
  53:../../../libDaisy/src/per/qspi.h ****         E_SWITCHING_MODES,
  54:../../../libDaisy/src/per/qspi.h ****         E_INVALID_MODE,
  55:../../../libDaisy/src/per/qspi.h ****     };
  56:../../../libDaisy/src/per/qspi.h **** 
  57:../../../libDaisy/src/per/qspi.h ****     /** Configuration structure for interfacing with QSPI Driver */
  58:../../../libDaisy/src/per/qspi.h ****     struct Config
  59:../../../libDaisy/src/per/qspi.h ****     {
  60:../../../libDaisy/src/per/qspi.h ****         /** Flash Devices supported. (Both of these are more-or-less the same, just different sizes
  61:../../../libDaisy/src/per/qspi.h ****         enum Device
  62:../../../libDaisy/src/per/qspi.h ****         {
  63:../../../libDaisy/src/per/qspi.h ****             IS25LP080D,  /**< & */
  64:../../../libDaisy/src/per/qspi.h ****             IS25LP064A,  /**< & */
  65:../../../libDaisy/src/per/qspi.h ****             DEVICE_LAST, /**< & */
  66:../../../libDaisy/src/per/qspi.h ****         };
  67:../../../libDaisy/src/per/qspi.h **** 
  68:../../../libDaisy/src/per/qspi.h ****         /**
  69:../../../libDaisy/src/per/qspi.h ****         Modes of operation.
  70:../../../libDaisy/src/per/qspi.h ****         Memory Mapped mode: QSPI configured so that the QSPI can be
  71:../../../libDaisy/src/per/qspi.h ****         read from starting address 0x90000000. Writing is not
  72:../../../libDaisy/src/per/qspi.h ****         possible in this mode. \n
  73:../../../libDaisy/src/per/qspi.h ****         Indirect Polling mode: Device driver enabled.
  74:../../../libDaisy/src/per/qspi.h ****         */
  75:../../../libDaisy/src/per/qspi.h ****         enum Mode
  76:../../../libDaisy/src/per/qspi.h ****         {
  77:../../../libDaisy/src/per/qspi.h ****             MEMORY_MAPPED,    /**< & */
  78:../../../libDaisy/src/per/qspi.h ****             INDIRECT_POLLING, /**< & */
  79:../../../libDaisy/src/per/qspi.h ****             MODE_LAST,
  80:../../../libDaisy/src/per/qspi.h ****         };
  81:../../../libDaisy/src/per/qspi.h **** 
  82:../../../libDaisy/src/per/qspi.h ****         //SCK,  CE# (active low)
  83:../../../libDaisy/src/per/qspi.h ****         struct
  84:../../../libDaisy/src/per/qspi.h ****         {
  85:../../../libDaisy/src/per/qspi.h ****             Pin io0; /**< & */
  86:../../../libDaisy/src/per/qspi.h ****             Pin io1; /**< & */
  87:../../../libDaisy/src/per/qspi.h ****             Pin io2; /**< & */
  88:../../../libDaisy/src/per/qspi.h ****             Pin io3; /**< & */
  89:../../../libDaisy/src/per/qspi.h ****             Pin clk; /**< & */
  90:../../../libDaisy/src/per/qspi.h ****             Pin ncs; /**< & */
  91:../../../libDaisy/src/per/qspi.h ****         } pin_config;
  92:../../../libDaisy/src/per/qspi.h **** 
  93:../../../libDaisy/src/per/qspi.h ****         Device device;
  94:../../../libDaisy/src/per/qspi.h ****         Mode   mode;
  95:../../../libDaisy/src/per/qspi.h ****     };
  96:../../../libDaisy/src/per/qspi.h **** 
ARM GAS  C:\Users\skipi\AppData\Local\Temp\ccG6iBdF.s 			page 25


  97:../../../libDaisy/src/per/qspi.h ****     /**
  98:../../../libDaisy/src/per/qspi.h ****         Initializes QSPI peripheral, and Resets, and prepares memory for access.
  99:../../../libDaisy/src/per/qspi.h ****         \param config should be populated with the mode, device and pin_config before calling this 
 100:../../../libDaisy/src/per/qspi.h ****         \return Result::OK or Result::ERR
 101:../../../libDaisy/src/per/qspi.h ****         */
 102:../../../libDaisy/src/per/qspi.h ****     Result Init(const Config& config);
 103:../../../libDaisy/src/per/qspi.h **** 
 104:../../../libDaisy/src/per/qspi.h ****     /** Returns the current config. */
 105:../../../libDaisy/src/per/qspi.h ****     const Config& GetConfig() const;
 106:../../../libDaisy/src/per/qspi.h **** 
 107:../../../libDaisy/src/per/qspi.h ****     // Couldn't this just be called before anything else in init? That
 108:../../../libDaisy/src/per/qspi.h ****     // would make manually calling it unnecessary.
 109:../../../libDaisy/src/per/qspi.h ****     /**
 110:../../../libDaisy/src/per/qspi.h ****         Deinitializes the peripheral
 111:../../../libDaisy/src/per/qspi.h ****         This should be called before reinitializing QSPI in a different mode.
 112:../../../libDaisy/src/per/qspi.h ****         \return Result::OK or Result::ERR
 113:../../../libDaisy/src/per/qspi.h ****         */
 114:../../../libDaisy/src/per/qspi.h ****     Result DeInit();
 115:../../../libDaisy/src/per/qspi.h **** 
 116:../../../libDaisy/src/per/qspi.h ****     /**
 117:../../../libDaisy/src/per/qspi.h ****         Writes a single page to to the specified address on the QSPI chip.
 118:../../../libDaisy/src/per/qspi.h ****         For IS25LP*, page size is 256 bytes.
 119:../../../libDaisy/src/per/qspi.h ****         \param address Address to write to
 120:../../../libDaisy/src/per/qspi.h ****         \param size Buffer size
 121:../../../libDaisy/src/per/qspi.h ****         \param buffer Buffer to write
 122:../../../libDaisy/src/per/qspi.h ****         \return Result::OK or Result::ERR
 123:../../../libDaisy/src/per/qspi.h ****         */
 124:../../../libDaisy/src/per/qspi.h ****     Result WritePage(uint32_t address, uint32_t size, uint8_t* buffer);
 125:../../../libDaisy/src/per/qspi.h **** 
 126:../../../libDaisy/src/per/qspi.h ****     /**
 127:../../../libDaisy/src/per/qspi.h ****         Writes data in buffer to to the QSPI. Starting at address to address+size
 128:../../../libDaisy/src/per/qspi.h ****         \param address Address to write to
 129:../../../libDaisy/src/per/qspi.h ****         \param size Buffer size
 130:../../../libDaisy/src/per/qspi.h ****         \param buffer Buffer to write
 131:../../../libDaisy/src/per/qspi.h ****         \return Result::OK or Result::ERR
 132:../../../libDaisy/src/per/qspi.h ****         */
 133:../../../libDaisy/src/per/qspi.h ****     Result Write(uint32_t address, uint32_t size, uint8_t* buffer);
 134:../../../libDaisy/src/per/qspi.h **** 
 135:../../../libDaisy/src/per/qspi.h ****     /**
 136:../../../libDaisy/src/per/qspi.h ****         Erases the area specified on the chip.
 137:../../../libDaisy/src/per/qspi.h ****         Erasures will happen by 4K, 32K or 64K increments.
 138:../../../libDaisy/src/per/qspi.h ****         Smallest erase possible is 4kB at a time. (on IS25LP*)
 139:../../../libDaisy/src/per/qspi.h ****         \param start_addr Address to begin erasing from
 140:../../../libDaisy/src/per/qspi.h ****         \param end_addr  Address to stop erasing at
 141:../../../libDaisy/src/per/qspi.h ****         \return Result::OK or Result::ERR
 142:../../../libDaisy/src/per/qspi.h ****         */
 143:../../../libDaisy/src/per/qspi.h ****     Result Erase(uint32_t start_addr, uint32_t end_addr);
 144:../../../libDaisy/src/per/qspi.h **** 
 145:../../../libDaisy/src/per/qspi.h ****     /**
 146:../../../libDaisy/src/per/qspi.h ****          Erases a single sector of the chip.
 147:../../../libDaisy/src/per/qspi.h ****         TODO: Document the size of this function.
 148:../../../libDaisy/src/per/qspi.h ****         \param address Address of sector to erase
 149:../../../libDaisy/src/per/qspi.h ****         \return Result::OK or Result::ERR
 150:../../../libDaisy/src/per/qspi.h ****         */
 151:../../../libDaisy/src/per/qspi.h ****     Result EraseSector(uint32_t address);
 152:../../../libDaisy/src/per/qspi.h **** 
 153:../../../libDaisy/src/per/qspi.h ****     /** Returns the current class status. Useful for debugging.
ARM GAS  C:\Users\skipi\AppData\Local\Temp\ccG6iBdF.s 			page 26


 154:../../../libDaisy/src/per/qspi.h ****      *  \returns Status
 155:../../../libDaisy/src/per/qspi.h ****      */
 156:../../../libDaisy/src/per/qspi.h ****     Status GetStatus();
 157:../../../libDaisy/src/per/qspi.h **** 
 158:../../../libDaisy/src/per/qspi.h ****     /** Returns a pointer to the actual memory used
 159:../../../libDaisy/src/per/qspi.h ****      *  The memory at this address is read-only
 160:../../../libDaisy/src/per/qspi.h ****      *  to write to it use the Write function.
 161:../../../libDaisy/src/per/qspi.h ****      *
 162:../../../libDaisy/src/per/qspi.h ****      *  \param offset returns the pointer starting this
 163:../../../libDaisy/src/per/qspi.h ****      *                many bytes into the memory
 164:../../../libDaisy/src/per/qspi.h ****     */
 165:../../../libDaisy/src/per/qspi.h ****     void* GetData(uint32_t offset = 0);
 166:../../../libDaisy/src/per/qspi.h **** 
 167:../../../libDaisy/src/per/qspi.h ****     QSPIHandle() : pimpl_(nullptr) {}
 659              		.loc 9 167 5 view .LVU186
 660              		.loc 9 167 5 is_stmt 0 view .LVU187
 661              	.LBE304:
 662              	.LBB307:
 663              	.LBI307:
  58:../../../libDaisy/src/per/qspi.h ****     {
 664              		.loc 9 58 12 is_stmt 1 view .LVU188
 665              	.LBB308:
 666              	.LBI308:
  84:../../../libDaisy/src/per/qspi.h ****             Pin io0; /**< & */
 667              		.loc 9 84 9 view .LVU189
 668              	.LBB309:
 669              	.LBI309:
 670              		.file 10 "../../../libDaisy/src/daisy_core.h"
   1:../../../libDaisy/src/daisy_core.h **** #pragma once
   2:../../../libDaisy/src/daisy_core.h **** #ifndef DSY_CORE_HW_H
   3:../../../libDaisy/src/daisy_core.h **** #define DSY_CORE_HW_H /**< & */
   4:../../../libDaisy/src/daisy_core.h **** #include <stdint.h>
   5:../../../libDaisy/src/daisy_core.h **** #include <stdlib.h>
   6:../../../libDaisy/src/daisy_core.h **** 
   7:../../../libDaisy/src/daisy_core.h **** #if defined(_MSC_VER)
   8:../../../libDaisy/src/daisy_core.h **** #define FORCE_INLINE __forceinline /**< & */
   9:../../../libDaisy/src/daisy_core.h **** #elif defined(__clang__)
  10:../../../libDaisy/src/daisy_core.h **** #define FORCE_INLINE inline __attribute__((always_inline)) /**< & */
  11:../../../libDaisy/src/daisy_core.h **** #pragma clang diagnostic ignored "-Wduplicate-decl-specifier"
  12:../../../libDaisy/src/daisy_core.h **** #elif defined(__GNUC__)
  13:../../../libDaisy/src/daisy_core.h **** #define FORCE_INLINE inline __attribute__((always_inline)) /**< & */
  14:../../../libDaisy/src/daisy_core.h **** #else
  15:../../../libDaisy/src/daisy_core.h **** #error unknown compiler
  16:../../../libDaisy/src/daisy_core.h **** #endif
  17:../../../libDaisy/src/daisy_core.h **** 
  18:../../../libDaisy/src/daisy_core.h **** /** @addtogroup utility
  19:../../../libDaisy/src/daisy_core.h ****     @{
  20:../../../libDaisy/src/daisy_core.h **** */
  21:../../../libDaisy/src/daisy_core.h **** 
  22:../../../libDaisy/src/daisy_core.h **** /** Macro for area of memory that is configured as cacheless
  23:../../../libDaisy/src/daisy_core.h **** This should be used primarily for DMA buffers, and the like.
  24:../../../libDaisy/src/daisy_core.h **** */
  25:../../../libDaisy/src/daisy_core.h **** #define DMA_BUFFER_MEM_SECTION __attribute__((section(".sram1_bss")))
  26:../../../libDaisy/src/daisy_core.h **** /** 
  27:../../../libDaisy/src/daisy_core.h **** THE DTCM RAM section is also non-cached. However, is not suitable 
  28:../../../libDaisy/src/daisy_core.h **** for DMA transfers. Performance is on par with internal SRAM w/ 
  29:../../../libDaisy/src/daisy_core.h **** cache enabled.
ARM GAS  C:\Users\skipi\AppData\Local\Temp\ccG6iBdF.s 			page 27


  30:../../../libDaisy/src/daisy_core.h **** */
  31:../../../libDaisy/src/daisy_core.h **** #define DTCM_MEM_SECTION __attribute__((section(".dtcmram_bss")))
  32:../../../libDaisy/src/daisy_core.h **** 
  33:../../../libDaisy/src/daisy_core.h **** #define FBIPMAX 0.999985f             /**< close to 1.0f-LSB at 16 bit */
  34:../../../libDaisy/src/daisy_core.h **** #define FBIPMIN (-FBIPMAX)            /**< - (1 - LSB) */
  35:../../../libDaisy/src/daisy_core.h **** #define U82F_SCALE 0.0078740f         /**< 1 / 127 */
  36:../../../libDaisy/src/daisy_core.h **** #define F2U8_SCALE 127.0f             /**< 128 - 1 */
  37:../../../libDaisy/src/daisy_core.h **** #define S82F_SCALE 0.0078125f         /**< 1 / (2**7) */
  38:../../../libDaisy/src/daisy_core.h **** #define F2S8_SCALE 127.0f             /**< (2 ** 7) - 1 */
  39:../../../libDaisy/src/daisy_core.h **** #define S162F_SCALE 3.0517578125e-05f /**< 1 / (2** 15) */
  40:../../../libDaisy/src/daisy_core.h **** #define F2S16_SCALE 32767.0f          /**< (2 ** 15) - 1 */
  41:../../../libDaisy/src/daisy_core.h **** #define F2S24_SCALE 8388608.0f        /**< 2 ** 23 */
  42:../../../libDaisy/src/daisy_core.h **** #define S242F_SCALE 1.192092896e-07f  /**< 1 / (2 ** 23) */
  43:../../../libDaisy/src/daisy_core.h **** #define S24SIGN 0x800000              /**< 2 ** 23 */
  44:../../../libDaisy/src/daisy_core.h **** #define S322F_SCALE 4.6566129e-10f    /**< 1 / (2** 31) */
  45:../../../libDaisy/src/daisy_core.h **** #define F2S32_SCALE 2147483647.f      /**< (2 ** 31) - 1 */
  46:../../../libDaisy/src/daisy_core.h **** 
  47:../../../libDaisy/src/daisy_core.h **** 
  48:../../../libDaisy/src/daisy_core.h **** /** shorthand macro for simplifying the reading of the left 
  49:../../../libDaisy/src/daisy_core.h ****  *  channel of a non-interleaved output buffer named out */
  50:../../../libDaisy/src/daisy_core.h **** #define OUT_L out[0]
  51:../../../libDaisy/src/daisy_core.h **** 
  52:../../../libDaisy/src/daisy_core.h **** /** shorthand macro for simplifying the reading of the right 
  53:../../../libDaisy/src/daisy_core.h ****  *  channel of a non-interleaved output buffer named out */
  54:../../../libDaisy/src/daisy_core.h **** #define OUT_R out[1]
  55:../../../libDaisy/src/daisy_core.h **** 
  56:../../../libDaisy/src/daisy_core.h **** /** shorthand macro for simplifying the reading of the left 
  57:../../../libDaisy/src/daisy_core.h ****  *  channel of a non-interleaved input buffer named in */
  58:../../../libDaisy/src/daisy_core.h **** #define IN_L in[0]
  59:../../../libDaisy/src/daisy_core.h **** 
  60:../../../libDaisy/src/daisy_core.h **** /** shorthand macro for simplifying the reading of the right 
  61:../../../libDaisy/src/daisy_core.h ****  *  channel of a non-interleaved input buffer named in */
  62:../../../libDaisy/src/daisy_core.h **** #define IN_R in[1]
  63:../../../libDaisy/src/daisy_core.h **** 
  64:../../../libDaisy/src/daisy_core.h **** /** 
  65:../../../libDaisy/src/daisy_core.h ****     Computes cube.
  66:../../../libDaisy/src/daisy_core.h ****     \param x Number to be cubed
  67:../../../libDaisy/src/daisy_core.h ****     \return x ^ 3
  68:../../../libDaisy/src/daisy_core.h **** */
  69:../../../libDaisy/src/daisy_core.h **** FORCE_INLINE float cube(float x)
  70:../../../libDaisy/src/daisy_core.h **** {
  71:../../../libDaisy/src/daisy_core.h ****     return (x * x) * x;
  72:../../../libDaisy/src/daisy_core.h **** }
  73:../../../libDaisy/src/daisy_core.h **** 
  74:../../../libDaisy/src/daisy_core.h **** /** 
  75:../../../libDaisy/src/daisy_core.h ****     Converts unsigned 8-bit to float
  76:../../../libDaisy/src/daisy_core.h ****     \param x Number to be scaled.
  77:../../../libDaisy/src/daisy_core.h ****     \return Scaled number.
  78:../../../libDaisy/src/daisy_core.h **** */
  79:../../../libDaisy/src/daisy_core.h **** FORCE_INLINE float u82f(uint8_t x)
  80:../../../libDaisy/src/daisy_core.h **** {
  81:../../../libDaisy/src/daisy_core.h ****     return ((float)x - 127.f) * U82F_SCALE;
  82:../../../libDaisy/src/daisy_core.h **** }
  83:../../../libDaisy/src/daisy_core.h **** 
  84:../../../libDaisy/src/daisy_core.h **** /**
  85:../../../libDaisy/src/daisy_core.h ****     Converts float to unsigned 8-bit
  86:../../../libDaisy/src/daisy_core.h **** */
ARM GAS  C:\Users\skipi\AppData\Local\Temp\ccG6iBdF.s 			page 28


  87:../../../libDaisy/src/daisy_core.h **** FORCE_INLINE uint8_t f2u8(float x)
  88:../../../libDaisy/src/daisy_core.h **** {
  89:../../../libDaisy/src/daisy_core.h ****     x = x <= FBIPMIN ? FBIPMIN : x;
  90:../../../libDaisy/src/daisy_core.h ****     x = x >= FBIPMAX ? FBIPMAX : x;
  91:../../../libDaisy/src/daisy_core.h ****     return (uint8_t)((x * F2U8_SCALE) + F2U8_SCALE);
  92:../../../libDaisy/src/daisy_core.h **** }
  93:../../../libDaisy/src/daisy_core.h **** 
  94:../../../libDaisy/src/daisy_core.h **** 
  95:../../../libDaisy/src/daisy_core.h **** /** 
  96:../../../libDaisy/src/daisy_core.h ****     Converts Signed 8-bit to float
  97:../../../libDaisy/src/daisy_core.h ****     \param x Number to be scaled.
  98:../../../libDaisy/src/daisy_core.h ****     \return Scaled number.
  99:../../../libDaisy/src/daisy_core.h **** */
 100:../../../libDaisy/src/daisy_core.h **** FORCE_INLINE float s82f(int8_t x)
 101:../../../libDaisy/src/daisy_core.h **** {
 102:../../../libDaisy/src/daisy_core.h ****     return (float)x * S82F_SCALE;
 103:../../../libDaisy/src/daisy_core.h **** }
 104:../../../libDaisy/src/daisy_core.h **** 
 105:../../../libDaisy/src/daisy_core.h **** /**
 106:../../../libDaisy/src/daisy_core.h ****     Converts float to Signed 8-bit
 107:../../../libDaisy/src/daisy_core.h **** */
 108:../../../libDaisy/src/daisy_core.h **** FORCE_INLINE int8_t f2s8(float x)
 109:../../../libDaisy/src/daisy_core.h **** {
 110:../../../libDaisy/src/daisy_core.h ****     x = x <= FBIPMIN ? FBIPMIN : x;
 111:../../../libDaisy/src/daisy_core.h ****     x = x >= FBIPMAX ? FBIPMAX : x;
 112:../../../libDaisy/src/daisy_core.h ****     return (int32_t)(x * F2S8_SCALE);
 113:../../../libDaisy/src/daisy_core.h **** }
 114:../../../libDaisy/src/daisy_core.h **** 
 115:../../../libDaisy/src/daisy_core.h **** /** 
 116:../../../libDaisy/src/daisy_core.h ****     Converts Signed 16-bit to float
 117:../../../libDaisy/src/daisy_core.h ****     \param x Number to be scaled.
 118:../../../libDaisy/src/daisy_core.h ****     \return Scaled number.
 119:../../../libDaisy/src/daisy_core.h **** */
 120:../../../libDaisy/src/daisy_core.h **** FORCE_INLINE float s162f(int16_t x)
 121:../../../libDaisy/src/daisy_core.h **** {
 122:../../../libDaisy/src/daisy_core.h ****     return (float)x * S162F_SCALE;
 123:../../../libDaisy/src/daisy_core.h **** }
 124:../../../libDaisy/src/daisy_core.h **** 
 125:../../../libDaisy/src/daisy_core.h **** /**
 126:../../../libDaisy/src/daisy_core.h ****     Converts float to Signed 16-bit
 127:../../../libDaisy/src/daisy_core.h **** */
 128:../../../libDaisy/src/daisy_core.h **** FORCE_INLINE int16_t f2s16(float x)
 129:../../../libDaisy/src/daisy_core.h **** {
 130:../../../libDaisy/src/daisy_core.h ****     x = x <= FBIPMIN ? FBIPMIN : x;
 131:../../../libDaisy/src/daisy_core.h ****     x = x >= FBIPMAX ? FBIPMAX : x;
 132:../../../libDaisy/src/daisy_core.h ****     return (int32_t)(x * F2S16_SCALE);
 133:../../../libDaisy/src/daisy_core.h **** }
 134:../../../libDaisy/src/daisy_core.h **** 
 135:../../../libDaisy/src/daisy_core.h **** /**
 136:../../../libDaisy/src/daisy_core.h ****     Converts Signed 24-bit to float
 137:../../../libDaisy/src/daisy_core.h ****  */
 138:../../../libDaisy/src/daisy_core.h **** FORCE_INLINE float s242f(int32_t x)
 139:../../../libDaisy/src/daisy_core.h **** {
 140:../../../libDaisy/src/daisy_core.h ****     x = (x ^ S24SIGN) - S24SIGN; //sign extend aka ((x<<8)>>8)
 141:../../../libDaisy/src/daisy_core.h ****     return (float)x * S242F_SCALE;
 142:../../../libDaisy/src/daisy_core.h **** }
 143:../../../libDaisy/src/daisy_core.h **** /**
ARM GAS  C:\Users\skipi\AppData\Local\Temp\ccG6iBdF.s 			page 29


 144:../../../libDaisy/src/daisy_core.h ****     Converts float to Signed 24-bit
 145:../../../libDaisy/src/daisy_core.h ****  */
 146:../../../libDaisy/src/daisy_core.h **** FORCE_INLINE int32_t f2s24(float x)
 147:../../../libDaisy/src/daisy_core.h **** {
 148:../../../libDaisy/src/daisy_core.h ****     x = x <= FBIPMIN ? FBIPMIN : x;
 149:../../../libDaisy/src/daisy_core.h ****     x = x >= FBIPMAX ? FBIPMAX : x;
 150:../../../libDaisy/src/daisy_core.h ****     return (int32_t)(x * F2S24_SCALE);
 151:../../../libDaisy/src/daisy_core.h **** }
 152:../../../libDaisy/src/daisy_core.h **** 
 153:../../../libDaisy/src/daisy_core.h **** /**
 154:../../../libDaisy/src/daisy_core.h ****     Converts Signed 32-bit to float
 155:../../../libDaisy/src/daisy_core.h ****  */
 156:../../../libDaisy/src/daisy_core.h **** FORCE_INLINE float s322f(int32_t x)
 157:../../../libDaisy/src/daisy_core.h **** {
 158:../../../libDaisy/src/daisy_core.h ****     return (float)x * S322F_SCALE;
 159:../../../libDaisy/src/daisy_core.h **** }
 160:../../../libDaisy/src/daisy_core.h **** /**
 161:../../../libDaisy/src/daisy_core.h ****     Converts float to Signed 24-bit
 162:../../../libDaisy/src/daisy_core.h ****  */
 163:../../../libDaisy/src/daisy_core.h **** FORCE_INLINE int32_t f2s32(float x)
 164:../../../libDaisy/src/daisy_core.h **** {
 165:../../../libDaisy/src/daisy_core.h ****     x = x <= FBIPMIN ? FBIPMIN : x;
 166:../../../libDaisy/src/daisy_core.h ****     x = x >= FBIPMAX ? FBIPMAX : x;
 167:../../../libDaisy/src/daisy_core.h ****     return (int32_t)(x * F2S32_SCALE);
 168:../../../libDaisy/src/daisy_core.h **** }
 169:../../../libDaisy/src/daisy_core.h **** 
 170:../../../libDaisy/src/daisy_core.h **** #ifdef __cplusplus
 171:../../../libDaisy/src/daisy_core.h **** 
 172:../../../libDaisy/src/daisy_core.h **** namespace daisy
 173:../../../libDaisy/src/daisy_core.h **** {
 174:../../../libDaisy/src/daisy_core.h **** /** @brief GPIO Port names */
 175:../../../libDaisy/src/daisy_core.h **** enum GPIOPort
 176:../../../libDaisy/src/daisy_core.h **** {
 177:../../../libDaisy/src/daisy_core.h ****     PORTA, /**< Port A */
 178:../../../libDaisy/src/daisy_core.h ****     PORTB, /**< Port B */
 179:../../../libDaisy/src/daisy_core.h ****     PORTC, /**< Port C */
 180:../../../libDaisy/src/daisy_core.h ****     PORTD, /**< Port D */
 181:../../../libDaisy/src/daisy_core.h ****     PORTE, /**< Port E */
 182:../../../libDaisy/src/daisy_core.h ****     PORTF, /**< Port F */
 183:../../../libDaisy/src/daisy_core.h ****     PORTG, /**< Port G */
 184:../../../libDaisy/src/daisy_core.h ****     PORTH, /**< Port H */
 185:../../../libDaisy/src/daisy_core.h ****     PORTI, /**< Port I */
 186:../../../libDaisy/src/daisy_core.h ****     PORTJ, /**< Port J */
 187:../../../libDaisy/src/daisy_core.h ****     PORTK, /**< Port K */
 188:../../../libDaisy/src/daisy_core.h ****     PORTX, /**< Used as a dummy port to signal an invalid pin. */
 189:../../../libDaisy/src/daisy_core.h **** };
 190:../../../libDaisy/src/daisy_core.h **** 
 191:../../../libDaisy/src/daisy_core.h **** /** @brief representation of hardware port/pin combination */
 192:../../../libDaisy/src/daisy_core.h **** struct Pin
 193:../../../libDaisy/src/daisy_core.h **** {
 194:../../../libDaisy/src/daisy_core.h ****     GPIOPort port;
 195:../../../libDaisy/src/daisy_core.h ****     uint8_t  pin;
 196:../../../libDaisy/src/daisy_core.h **** 
 197:../../../libDaisy/src/daisy_core.h ****     /** @brief Constructor creates a valid pin. 
 198:../../../libDaisy/src/daisy_core.h ****      *  @param pt GPIOPort between PA, and PK corresponding to STM32 Port.
 199:../../../libDaisy/src/daisy_core.h ****      *  @param pn pin number in range of 0-15
 200:../../../libDaisy/src/daisy_core.h ****     */
ARM GAS  C:\Users\skipi\AppData\Local\Temp\ccG6iBdF.s 			page 30


 201:../../../libDaisy/src/daisy_core.h ****     constexpr Pin(const GPIOPort pt, const uint8_t pn) : port(pt), pin(pn) {}
 202:../../../libDaisy/src/daisy_core.h **** 
 203:../../../libDaisy/src/daisy_core.h ****     /** @brief Basic Constructor creates an invalid Pin object */
 204:../../../libDaisy/src/daisy_core.h ****     constexpr Pin() : port(PORTX), pin(255) {}
 671              		.loc 10 204 15 view .LVU190
 672              		.loc 10 204 15 is_stmt 0 view .LVU191
 673              	.LBE309:
 674              	.LBB310:
 675              	.LBI310:
 676              		.loc 10 204 15 is_stmt 1 view .LVU192
 677              		.loc 10 204 15 is_stmt 0 view .LVU193
 678              	.LBE310:
 679              	.LBB311:
 680              	.LBI311:
 681              		.loc 10 204 15 is_stmt 1 view .LVU194
 682              		.loc 10 204 15 is_stmt 0 view .LVU195
 683              	.LBE311:
 684              	.LBB312:
 685              	.LBI312:
 686              		.loc 10 204 15 is_stmt 1 view .LVU196
 687              		.loc 10 204 15 is_stmt 0 view .LVU197
 688              	.LBE312:
 689              	.LBB313:
 690              	.LBI313:
 691              		.loc 10 204 15 is_stmt 1 view .LVU198
 692              		.loc 10 204 15 is_stmt 0 view .LVU199
 693              	.LBE313:
 694              	.LBB314:
 695              	.LBI314:
 696              		.loc 10 204 15 is_stmt 1 view .LVU200
 697              		.loc 10 204 15 is_stmt 0 view .LVU201
 698              	.LBE314:
 699              	.LBE308:
 700              	.LBE307:
 701              	.LBB315:
 702              	.LBI315:
  87:../../../libDaisy/src/hid/audio.h ****     ~AudioHandle() {}
 703              		.loc 6 87 5 is_stmt 1 view .LVU202
  87:../../../libDaisy/src/hid/audio.h ****     ~AudioHandle() {}
 704              		.loc 6 87 5 is_stmt 0 view .LVU203
 705              	.LBE315:
 706              	.LBB318:
 707              	.LBI318:
 109:../../../libDaisy/src/per/adc.h ****     ~AdcHandle() {}
 708              		.loc 5 109 5 is_stmt 1 view .LVU204
 109:../../../libDaisy/src/per/adc.h ****     ~AdcHandle() {}
 709              		.loc 5 109 5 is_stmt 0 view .LVU205
 710              	.LBE318:
 711              	.LBB319:
 712              	.LBI319:
 713              		.file 11 "../../../libDaisy/src/per/dac.h"
   1:../../../libDaisy/src/per/dac.h **** #pragma once
   2:../../../libDaisy/src/per/dac.h **** #ifndef DSY_DAC_H
   3:../../../libDaisy/src/per/dac.h **** #define DSY_DAC_H
   4:../../../libDaisy/src/per/dac.h **** #include "stm32h7xx_hal.h"
   5:../../../libDaisy/src/per/dac.h **** #include "daisy_core.h"
   6:../../../libDaisy/src/per/dac.h **** 
ARM GAS  C:\Users\skipi\AppData\Local\Temp\ccG6iBdF.s 			page 31


   7:../../../libDaisy/src/per/dac.h **** namespace daisy
   8:../../../libDaisy/src/per/dac.h **** {
   9:../../../libDaisy/src/per/dac.h **** /** @brief DAC handle for Built-in DAC Peripheral 
  10:../../../libDaisy/src/per/dac.h ****  *  @ingroup per_analog
  11:../../../libDaisy/src/per/dac.h ****  ** 
  12:../../../libDaisy/src/per/dac.h ****  ** For now only Normal Mode is supported,
  13:../../../libDaisy/src/per/dac.h ****  ** Sample and hold mode provides reduced power consumption, but requires a bit more setup.
  14:../../../libDaisy/src/per/dac.h ****  **
  15:../../../libDaisy/src/per/dac.h ****  ** For now connecting the DAC through other internal peripherals is also not supported.
  16:../../../libDaisy/src/per/dac.h ****  **
  17:../../../libDaisy/src/per/dac.h ****  ** Since the DAC channels have dedicated pins we don't need to pass in a pin config like with
  18:../../../libDaisy/src/per/dac.h ****  ** other modules. However, it is still important to not try to use the DAC pins for anything else.
  19:../../../libDaisy/src/per/dac.h ****  ** DAC Channel 1 is on PA4, and DAC Channel 2 is on PA5
  20:../../../libDaisy/src/per/dac.h ****  ***/
  21:../../../libDaisy/src/per/dac.h **** class DacHandle
  22:../../../libDaisy/src/per/dac.h **** {
  23:../../../libDaisy/src/per/dac.h ****   public:
  24:../../../libDaisy/src/per/dac.h ****     /** Return Values for the DacHandle class */
  25:../../../libDaisy/src/per/dac.h ****     enum class Result
  26:../../../libDaisy/src/per/dac.h ****     {
  27:../../../libDaisy/src/per/dac.h ****         OK,
  28:../../../libDaisy/src/per/dac.h ****         ERR,
  29:../../../libDaisy/src/per/dac.h ****     };
  30:../../../libDaisy/src/per/dac.h **** 
  31:../../../libDaisy/src/per/dac.h ****     /** Selects which channel(s) will be configured for use. */
  32:../../../libDaisy/src/per/dac.h ****     enum class Channel
  33:../../../libDaisy/src/per/dac.h ****     {
  34:../../../libDaisy/src/per/dac.h ****         ONE,
  35:../../../libDaisy/src/per/dac.h ****         TWO,
  36:../../../libDaisy/src/per/dac.h ****         BOTH,
  37:../../../libDaisy/src/per/dac.h ****     };
  38:../../../libDaisy/src/per/dac.h **** 
  39:../../../libDaisy/src/per/dac.h ****     /** Sets the Mode for the DAC channels.
  40:../../../libDaisy/src/per/dac.h ****      **
  41:../../../libDaisy/src/per/dac.h ****      ** Polling mode uses the blocking mode to transmit a single value at a time.
  42:../../../libDaisy/src/per/dac.h ****      **
  43:../../../libDaisy/src/per/dac.h ****      ** DMA mode uses a buffer, and periodically transmits it triggering a 
  44:../../../libDaisy/src/per/dac.h ****      ** callback to fill the buffer when it is ready for more samples.
  45:../../../libDaisy/src/per/dac.h ****      ***/
  46:../../../libDaisy/src/per/dac.h ****     enum class Mode
  47:../../../libDaisy/src/per/dac.h ****     {
  48:../../../libDaisy/src/per/dac.h ****         POLLING,
  49:../../../libDaisy/src/per/dac.h ****         DMA,
  50:../../../libDaisy/src/per/dac.h ****     };
  51:../../../libDaisy/src/per/dac.h **** 
  52:../../../libDaisy/src/per/dac.h ****     /** Sets the number of bits per sample transmitted out of the DAC.
  53:../../../libDaisy/src/per/dac.h ****      ** The output range will be: 0V - VDDA
  54:../../../libDaisy/src/per/dac.h ****      ** The resolution will be roughly: bitdepth / (VDDA - 0V) 
  55:../../../libDaisy/src/per/dac.h ****      ***/
  56:../../../libDaisy/src/per/dac.h ****     enum class BitDepth
  57:../../../libDaisy/src/per/dac.h ****     {
  58:../../../libDaisy/src/per/dac.h ****         BITS_8,
  59:../../../libDaisy/src/per/dac.h ****         BITS_12
  60:../../../libDaisy/src/per/dac.h ****     };
  61:../../../libDaisy/src/per/dac.h **** 
  62:../../../libDaisy/src/per/dac.h ****     /** Sets whether the DAC output is buffered for higher drive ability. */
  63:../../../libDaisy/src/per/dac.h ****     enum class BufferState
ARM GAS  C:\Users\skipi\AppData\Local\Temp\ccG6iBdF.s 			page 32


  64:../../../libDaisy/src/per/dac.h ****     {
  65:../../../libDaisy/src/per/dac.h ****         ENABLED,
  66:../../../libDaisy/src/per/dac.h ****         DISABLED,
  67:../../../libDaisy/src/per/dac.h ****     };
  68:../../../libDaisy/src/per/dac.h **** 
  69:../../../libDaisy/src/per/dac.h ****     /** Configuration structure for initializing the DAC structure. */
  70:../../../libDaisy/src/per/dac.h ****     struct Config
  71:../../../libDaisy/src/per/dac.h ****     {
  72:../../../libDaisy/src/per/dac.h ****         /** Target Samplerate in Hz used to configure the internal 
  73:../../../libDaisy/src/per/dac.h ****          ** timebase for DMA mode. Does nothing in POLLING mode.
  74:../../../libDaisy/src/per/dac.h ****          ** If the value is 0 at Init time this will default to 48000Hz 
  75:../../../libDaisy/src/per/dac.h ****          ** otherwise the driver will attempt meet the target.*/
  76:../../../libDaisy/src/per/dac.h ****         uint32_t target_samplerate;
  77:../../../libDaisy/src/per/dac.h **** 
  78:../../../libDaisy/src/per/dac.h ****         Channel     chn;
  79:../../../libDaisy/src/per/dac.h ****         Mode        mode;
  80:../../../libDaisy/src/per/dac.h ****         BitDepth    bitdepth;
  81:../../../libDaisy/src/per/dac.h ****         BufferState buff_state;
  82:../../../libDaisy/src/per/dac.h ****     };
  83:../../../libDaisy/src/per/dac.h **** 
  84:../../../libDaisy/src/per/dac.h ****     DacHandle() : pimpl_(nullptr) {}
 714              		.loc 11 84 5 is_stmt 1 view .LVU206
 715              		.loc 11 84 5 is_stmt 0 view .LVU207
 716              	.LBE319:
 717              	.LBB322:
 718              	.LBI322:
  40:../../../libDaisy/src/hid/usb.h **** 
 719              		.loc 4 40 5 is_stmt 1 view .LVU208
  40:../../../libDaisy/src/hid/usb.h **** 
 720              		.loc 4 40 5 is_stmt 0 view .LVU209
 721              	.LBE322:
 722              	.LBB323:
 723              	.LBI323:
 724              		.file 12 "../../../libDaisy/src/per/gpio.h"
   1:../../../libDaisy/src/per/gpio.h **** #pragma once
   2:../../../libDaisy/src/per/gpio.h **** #ifndef DSY_GPIO_H
   3:../../../libDaisy/src/per/gpio.h **** #define DSY_GPIO_H
   4:../../../libDaisy/src/per/gpio.h **** #include "daisy_core.h"
   5:../../../libDaisy/src/per/gpio.h **** 
   6:../../../libDaisy/src/per/gpio.h **** #ifdef __cplusplus
   7:../../../libDaisy/src/per/gpio.h **** 
   8:../../../libDaisy/src/per/gpio.h **** namespace daisy
   9:../../../libDaisy/src/per/gpio.h **** {
  10:../../../libDaisy/src/per/gpio.h **** /** @brief General Purpose I/O control 
  11:../../../libDaisy/src/per/gpio.h ****  *  @details peripheral control over a single GPIO
  12:../../../libDaisy/src/per/gpio.h ****  *  @ingroup peripheral
  13:../../../libDaisy/src/per/gpio.h ****  *   
  14:../../../libDaisy/src/per/gpio.h ****  *  Button Input (with internal Pullup resistor)
  15:../../../libDaisy/src/per/gpio.h ****  *  @include GPIO_Input.cpp 
  16:../../../libDaisy/src/per/gpio.h ****  * 
  17:../../../libDaisy/src/per/gpio.h ****  *  Output Example (perfect for blinking an LED)
  18:../../../libDaisy/src/per/gpio.h ****  *  @include GPIO_Output.cpp
  19:../../../libDaisy/src/per/gpio.h ****  * 
  20:../../../libDaisy/src/per/gpio.h **** */
  21:../../../libDaisy/src/per/gpio.h **** class GPIO
  22:../../../libDaisy/src/per/gpio.h **** {
  23:../../../libDaisy/src/per/gpio.h ****   public:
ARM GAS  C:\Users\skipi\AppData\Local\Temp\ccG6iBdF.s 			page 33


  24:../../../libDaisy/src/per/gpio.h ****     /** @brief Mode of operation for the specified GPIO */
  25:../../../libDaisy/src/per/gpio.h ****     enum class Mode
  26:../../../libDaisy/src/per/gpio.h ****     {
  27:../../../libDaisy/src/per/gpio.h ****         INPUT,      /**< Input for reading state of pin */
  28:../../../libDaisy/src/per/gpio.h ****         OUTPUT,     /**< Output w/ push-pull configuration */
  29:../../../libDaisy/src/per/gpio.h ****         OPEN_DRAIN, /**< Output w/ open-drain configuration */
  30:../../../libDaisy/src/per/gpio.h ****         ANALOG,     /**< Analog for connection to ADC or DAC peripheral */
  31:../../../libDaisy/src/per/gpio.h ****     };
  32:../../../libDaisy/src/per/gpio.h **** 
  33:../../../libDaisy/src/per/gpio.h ****     /** @brief Configures whether an internal Pull up or Pull down resistor is used. 
  34:../../../libDaisy/src/per/gpio.h ****      *  
  35:../../../libDaisy/src/per/gpio.h ****      * Internal Pull up/down resistors are typically 40k ohms, and will be between
  36:../../../libDaisy/src/per/gpio.h ****      * 30k and 50k
  37:../../../libDaisy/src/per/gpio.h ****      * 
  38:../../../libDaisy/src/per/gpio.h ****      * When the Pin is configured in Analog mode, the pull up/down resistors are
  39:../../../libDaisy/src/per/gpio.h ****      * disabled by hardware. 
  40:../../../libDaisy/src/per/gpio.h ****      */
  41:../../../libDaisy/src/per/gpio.h ****     enum class Pull
  42:../../../libDaisy/src/per/gpio.h ****     {
  43:../../../libDaisy/src/per/gpio.h ****         NOPULL,   /**< No pull up resistor */
  44:../../../libDaisy/src/per/gpio.h ****         PULLUP,   /**< Internal pull up enabled */
  45:../../../libDaisy/src/per/gpio.h ****         PULLDOWN, /**< Internal pull down enabled*/
  46:../../../libDaisy/src/per/gpio.h ****     };
  47:../../../libDaisy/src/per/gpio.h **** 
  48:../../../libDaisy/src/per/gpio.h ****     /** @brief Output speed controls the drive strength, and slew rate of the pin */
  49:../../../libDaisy/src/per/gpio.h ****     enum class Speed
  50:../../../libDaisy/src/per/gpio.h ****     {
  51:../../../libDaisy/src/per/gpio.h ****         LOW,
  52:../../../libDaisy/src/per/gpio.h ****         MEDIUM,
  53:../../../libDaisy/src/per/gpio.h ****         HIGH,
  54:../../../libDaisy/src/per/gpio.h ****         VERY_HIGH,
  55:../../../libDaisy/src/per/gpio.h ****     };
  56:../../../libDaisy/src/per/gpio.h **** 
  57:../../../libDaisy/src/per/gpio.h ****     /** @brief Configuration for a given GPIO */
  58:../../../libDaisy/src/per/gpio.h ****     struct Config
  59:../../../libDaisy/src/per/gpio.h ****     {
  60:../../../libDaisy/src/per/gpio.h ****         Pin   pin;
  61:../../../libDaisy/src/per/gpio.h ****         Mode  mode;
  62:../../../libDaisy/src/per/gpio.h ****         Pull  pull;
  63:../../../libDaisy/src/per/gpio.h ****         Speed speed;
  64:../../../libDaisy/src/per/gpio.h **** 
  65:../../../libDaisy/src/per/gpio.h ****         /** Constructor with no arguments will prepare an invalid GPIO set as
  66:../../../libDaisy/src/per/gpio.h ****          *  an input, with no pullup. 
  67:../../../libDaisy/src/per/gpio.h ****          */
  68:../../../libDaisy/src/per/gpio.h ****         Config()
  69:../../../libDaisy/src/per/gpio.h ****         : pin(), mode(Mode::INPUT), pull(Pull::NOPULL), speed(Speed::LOW)
  70:../../../libDaisy/src/per/gpio.h ****         {
  71:../../../libDaisy/src/per/gpio.h ****         }
  72:../../../libDaisy/src/per/gpio.h ****     };
  73:../../../libDaisy/src/per/gpio.h **** 
  74:../../../libDaisy/src/per/gpio.h ****     GPIO() {}
 725              		.loc 12 74 5 is_stmt 1 view .LVU210
 726              	.LBB324:
 727              	.LBB325:
 728              	.LBI325:
  68:../../../libDaisy/src/per/gpio.h ****         : pin(), mode(Mode::INPUT), pull(Pull::NOPULL), speed(Speed::LOW)
 729              		.loc 12 68 9 view .LVU211
ARM GAS  C:\Users\skipi\AppData\Local\Temp\ccG6iBdF.s 			page 34


 730              	.LBB326:
 731              	.LBB327:
 732              	.LBB328:
 733              	.LBI328:
 734              		.loc 10 204 15 view .LVU212
 735              		.loc 10 204 15 is_stmt 0 view .LVU213
 736              	.LBE328:
 737              	.LBE327:
 738              	.LBE326:
 739              	.LBE325:
 740              	.LBE324:
 741              	.LBE323:
 742              	.LBB337:
 743              	.LBI337:
 744              		.loc 12 74 5 is_stmt 1 view .LVU214
 745              	.LBB338:
 746              	.LBB339:
 747              	.LBI339:
  68:../../../libDaisy/src/per/gpio.h ****         : pin(), mode(Mode::INPUT), pull(Pull::NOPULL), speed(Speed::LOW)
 748              		.loc 12 68 9 view .LVU215
 749              	.LBB340:
 750              	.LBB341:
 751              	.LBB342:
 752              	.LBI342:
 753              		.loc 10 204 15 view .LVU216
 754              		.loc 10 204 15 is_stmt 0 view .LVU217
 755              	.LBE342:
 756              	.LBE341:
 757              	.LBE340:
 758              	.LBE339:
 759              	.LBE338:
 760              	.LBE337:
 761              	.LBB351:
 762              	.LBI351:
  96:../../../libDaisy/src/sys/system.h ****     ~System() {}
 763              		.loc 3 96 5 is_stmt 1 view .LVU218
  96:../../../libDaisy/src/sys/system.h ****     ~System() {}
 764              		.loc 3 96 5 is_stmt 0 view .LVU219
 765              	.LBE351:
 766              	.LBB352:
 767              	.LBI352:
  20:../../../libDaisy/src/dev/codec_ak4556.h ****     ~Ak4556() {}
 768              		.loc 2 20 5 is_stmt 1 view .LVU220
 769              	.LBB353:
 770              	.LBI353:
 771              		.loc 12 74 5 view .LVU221
 772              	.LBB354:
 773              	.LBB355:
 774              	.LBI355:
  68:../../../libDaisy/src/per/gpio.h ****         : pin(), mode(Mode::INPUT), pull(Pull::NOPULL), speed(Speed::LOW)
 775              		.loc 12 68 9 view .LVU222
 776              	.LBB356:
 777              	.LBB357:
 778              	.LBB358:
 779              	.LBI358:
 780              		.loc 10 204 15 view .LVU223
 781              		.loc 10 204 15 is_stmt 0 view .LVU224
ARM GAS  C:\Users\skipi\AppData\Local\Temp\ccG6iBdF.s 			page 35


 782              	.LBE358:
 783              	.LBE357:
 784              	.LBE356:
 785              	.LBE355:
 786              	.LBE354:
 787              	.LBE353:
 788              	.LBE352:
 789              	.LBB369:
 790              	.LBI369:
 791              		.file 13 "../../../libDaisy/src/per/sai.h"
   1:../../../libDaisy/src/per/sai.h **** #pragma once
   2:../../../libDaisy/src/per/sai.h **** #ifndef DSY_SAI_H
   3:../../../libDaisy/src/per/sai.h **** #define DSY_SAI_H
   4:../../../libDaisy/src/per/sai.h **** 
   5:../../../libDaisy/src/per/sai.h **** #include "util/hal_map.h"
   6:../../../libDaisy/src/per/sai.h **** #include "daisy_core.h"
   7:../../../libDaisy/src/per/sai.h **** 
   8:../../../libDaisy/src/per/sai.h **** namespace daisy
   9:../../../libDaisy/src/per/sai.h **** {
  10:../../../libDaisy/src/per/sai.h **** /** 
  11:../../../libDaisy/src/per/sai.h ****  * Support for I2S Audio Protocol with different bit-depth, samplerate options
  12:../../../libDaisy/src/per/sai.h ****  * Allows for master or slave, as well as freedom of selecting direction, 
  13:../../../libDaisy/src/per/sai.h ****  * and other behavior for each peripheral, and block.
  14:../../../libDaisy/src/per/sai.h ****  * 
  15:../../../libDaisy/src/per/sai.h ****  * DMA Transfer commands must use buffers located within non-cached memory or use cache maintenance
  16:../../../libDaisy/src/per/sai.h ****  * To declare an unitialized global element in the DMA memory section:
  17:../../../libDaisy/src/per/sai.h ****  *    int32_t DSY_DMA_BUFFER_SECTOR my_buffer[96];
  18:../../../libDaisy/src/per/sai.h ****  *
  19:../../../libDaisy/src/per/sai.h ****  * Callback functions will be called once per half of the buffer. In the above example, 
  20:../../../libDaisy/src/per/sai.h ****  * the callback function would be called once for every 48 samples.
  21:../../../libDaisy/src/per/sai.h ****  * 
  22:../../../libDaisy/src/per/sai.h ****  * Use SAI Handle like this:
  23:../../../libDaisy/src/per/sai.h ****  * 
  24:../../../libDaisy/src/per/sai.h ****  *  SaiHandle::Config sai_config;
  25:../../../libDaisy/src/per/sai.h ****  *  sai_config.periph          = SaiHandle::Config::Peripheral::SAI_1;
  26:../../../libDaisy/src/per/sai.h ****  *  sai_config.sr              = SaiHandle::Config::SampleRate::SAI_48KHZ;
  27:../../../libDaisy/src/per/sai.h ****  *  sai_config.bit_depth       = SaiHandle::Config::BitDepth::SAI_24BIT;
  28:../../../libDaisy/src/per/sai.h ****  *  sai_config.a_sync          = SaiHandle::Config::Sync::MASTER;
  29:../../../libDaisy/src/per/sai.h ****  *  sai_config.b_sync          = SaiHandle::Config::Sync::SLAVE;
  30:../../../libDaisy/src/per/sai.h ****  *  sai_config.a_dir           = SaiHandle::Config::Direction::RECEIVE;
  31:../../../libDaisy/src/per/sai.h ****  *  sai_config.b_dir           = SaiHandle::Config::Direction::TRANSMIT;
  32:../../../libDaisy/src/per/sai.h ****  *  sai_config.pin_config.fs   = {DSY_GPIOE, 4};
  33:../../../libDaisy/src/per/sai.h ****  *  sai_config.pin_config.mclk = {DSY_GPIOE, 2};
  34:../../../libDaisy/src/per/sai.h ****  *  sai_config.pin_config.sck  = {DSY_GPIOE, 5};
  35:../../../libDaisy/src/per/sai.h ****  *  sai_config.pin_config.sa   = {DSY_GPIOE, 6};
  36:../../../libDaisy/src/per/sai.h ****  *  sai_config.pin_config.sb   = {DSY_GPIOE, 3};
  37:../../../libDaisy/src/per/sai.h ****  *  // Then Initialize
  38:../../../libDaisy/src/per/sai.h ****  *  SaiHandle sai;
  39:../../../libDaisy/src/per/sai.h ****  *  sai.Init(sai_config);
  40:../../../libDaisy/src/per/sai.h ****  *  // Now you can use it:
  41:../../../libDaisy/src/per/sai.h ****  *  sai.StartDma(. . .);
  42:../../../libDaisy/src/per/sai.h ****  */
  43:../../../libDaisy/src/per/sai.h **** class SaiHandle
  44:../../../libDaisy/src/per/sai.h **** {
  45:../../../libDaisy/src/per/sai.h ****   public:
  46:../../../libDaisy/src/per/sai.h ****     /** Contains settings for initialising an SAI Interface */
  47:../../../libDaisy/src/per/sai.h ****     struct Config
ARM GAS  C:\Users\skipi\AppData\Local\Temp\ccG6iBdF.s 			page 36


  48:../../../libDaisy/src/per/sai.h ****     {
  49:../../../libDaisy/src/per/sai.h ****         /** Specifies the internal peripheral to use (mapped to different hardware pins) */
  50:../../../libDaisy/src/per/sai.h ****         enum class Peripheral
  51:../../../libDaisy/src/per/sai.h ****         {
  52:../../../libDaisy/src/per/sai.h ****             SAI_1,
  53:../../../libDaisy/src/per/sai.h ****             SAI_2,
  54:../../../libDaisy/src/per/sai.h ****         };
  55:../../../libDaisy/src/per/sai.h **** 
  56:../../../libDaisy/src/per/sai.h ****         /** Rate at which samples will be streaming to/from the device. */
  57:../../../libDaisy/src/per/sai.h ****         enum class SampleRate
  58:../../../libDaisy/src/per/sai.h ****         {
  59:../../../libDaisy/src/per/sai.h ****             SAI_8KHZ,
  60:../../../libDaisy/src/per/sai.h ****             SAI_16KHZ,
  61:../../../libDaisy/src/per/sai.h ****             SAI_32KHZ,
  62:../../../libDaisy/src/per/sai.h ****             SAI_48KHZ,
  63:../../../libDaisy/src/per/sai.h ****             SAI_96KHZ,
  64:../../../libDaisy/src/per/sai.h ****         };
  65:../../../libDaisy/src/per/sai.h **** 
  66:../../../libDaisy/src/per/sai.h ****         /** Bit Depth that the hardware expects to be transferred to/from the device. */
  67:../../../libDaisy/src/per/sai.h ****         enum class BitDepth
  68:../../../libDaisy/src/per/sai.h ****         {
  69:../../../libDaisy/src/per/sai.h ****             SAI_16BIT,
  70:../../../libDaisy/src/per/sai.h ****             SAI_24BIT,
  71:../../../libDaisy/src/per/sai.h ****             SAI_32BIT,
  72:../../../libDaisy/src/per/sai.h ****         };
  73:../../../libDaisy/src/per/sai.h **** 
  74:../../../libDaisy/src/per/sai.h ****         /** Specifies whether a particular block is the master or the slave 
  75:../../../libDaisy/src/per/sai.h ****          ** If both are set to slave, no MCLK signal will be used, and it is
  76:../../../libDaisy/src/per/sai.h ****          ** expected that the codec will have its own xtal.
  77:../../../libDaisy/src/per/sai.h ****          */
  78:../../../libDaisy/src/per/sai.h ****         enum class Sync
  79:../../../libDaisy/src/per/sai.h ****         {
  80:../../../libDaisy/src/per/sai.h ****             MASTER,
  81:../../../libDaisy/src/per/sai.h ****             SLAVE,
  82:../../../libDaisy/src/per/sai.h ****         };
  83:../../../libDaisy/src/per/sai.h **** 
  84:../../../libDaisy/src/per/sai.h ****         /** Specifies the direction for each peripheral block. */
  85:../../../libDaisy/src/per/sai.h ****         enum class Direction
  86:../../../libDaisy/src/per/sai.h ****         {
  87:../../../libDaisy/src/per/sai.h ****             TRANSMIT,
  88:../../../libDaisy/src/per/sai.h ****             RECEIVE,
  89:../../../libDaisy/src/per/sai.h ****         };
  90:../../../libDaisy/src/per/sai.h **** 
  91:../../../libDaisy/src/per/sai.h ****         Peripheral periph;
  92:../../../libDaisy/src/per/sai.h ****         struct
  93:../../../libDaisy/src/per/sai.h ****         {
  94:../../../libDaisy/src/per/sai.h ****             Pin mclk, fs, sck, sa, sb;
  95:../../../libDaisy/src/per/sai.h ****         } pin_config;
  96:../../../libDaisy/src/per/sai.h ****         SampleRate sr;
  97:../../../libDaisy/src/per/sai.h ****         BitDepth   bit_depth;
  98:../../../libDaisy/src/per/sai.h ****         Sync       a_sync, b_sync;
  99:../../../libDaisy/src/per/sai.h ****         Direction  a_dir, b_dir;
 100:../../../libDaisy/src/per/sai.h ****     };
 101:../../../libDaisy/src/per/sai.h **** 
 102:../../../libDaisy/src/per/sai.h ****     /** Return values for SAI functions */
 103:../../../libDaisy/src/per/sai.h ****     enum class Result
 104:../../../libDaisy/src/per/sai.h ****     {
ARM GAS  C:\Users\skipi\AppData\Local\Temp\ccG6iBdF.s 			page 37


 105:../../../libDaisy/src/per/sai.h ****         OK,
 106:../../../libDaisy/src/per/sai.h ****         ERR,
 107:../../../libDaisy/src/per/sai.h ****     };
 108:../../../libDaisy/src/per/sai.h **** 
 109:../../../libDaisy/src/per/sai.h ****     SaiHandle() : pimpl_(nullptr) {}
 792              		.loc 13 109 5 is_stmt 1 view .LVU225
 793              	.LBE369:
 794              	.LBE303:
 795              	.LBE302:
 796              	.LBE301:
 797              	.LBE300:
 798              		.loc 8 69 1 is_stmt 0 view .LVU226
 799 0000 10B5     		push	{r4, lr}
 800              		.cfi_def_cfa_offset 8
 801              		.cfi_offset 4, -8
 802              		.cfi_offset 14, -4
 803              	.LBB393:
 804              	.LBB391:
 805              	.LBB385:
 806              	.LBB382:
 807              	.LBB372:
 808              	.LBB305:
 809              	.LBB306:
 810              		.loc 9 167 34 view .LVU227
 811 0002 0023     		movs	r3, #0
 812 0004 1A48     		ldr	r0, .L25
 813              	.LBE306:
 814              	.LBE305:
 815              	.LBE372:
  21:../../../libDaisy/src/daisy_seed.h ****     ~DaisySeed() {}
 816              		.loc 1 21 17 view .LVU228
 817 0006 6FF0F414 		mvn	r4, #15991028
 818 000a 4FF60B71 		movw	r1, #65291
 819              	.LBB373:
 820              	.LBB316:
 821              	.LBB317:
  87:../../../libDaisy/src/hid/audio.h ****     ~AudioHandle() {}
 822              		.loc 6 87 35 view .LVU229
 823 000e 4361     		str	r3, [r0, #20]
 824              	.LBE317:
 825              	.LBE316:
 826              	.LBE373:
 827              	.LBB374:
 828              	.LBB320:
 829              	.LBB321:
 830              		.loc 11 84 33 view .LVU230
 831 0010 0362     		str	r3, [r0, #32]
 832              	.LBE321:
 833              	.LBE320:
 834              	.LBE374:
 835              	.LBB375:
 836              	.LBB367:
 837              	.LBB365:
 838              	.LBB363:
 839              	.LBB361:
 840              	.LBB359:
  69:../../../libDaisy/src/per/gpio.h ****         {
ARM GAS  C:\Users\skipi\AppData\Local\Temp\ccG6iBdF.s 			page 38


 841              		.loc 12 69 73 view .LVU231
 842 0012 4366     		str	r3, [r0, #100]
 843              	.LBE359:
 844              	.LBE361:
 845              	.LBE363:
 846              	.LBE365:
 847              	.LBE367:
 848              	.LBE375:
 849              	.LBB376:
 850              	.LBB370:
 851              	.LBB371:
 852              		.loc 13 109 33 view .LVU232
 853 0014 0367     		str	r3, [r0, #112]
 854              	.LVL44:
 855              		.loc 13 109 33 view .LVU233
 856              	.LBE371:
 857              	.LBE370:
 858              	.LBE376:
 859              	.LBE382:
 860              	.LBE385:
   8:main.cpp      **** DaisySeed hw;
 861              		.loc 8 8 11 view .LVU234
 862 0016 174A     		ldr	r2, .L25+4
 863              	.LBB386:
 864              	.LBB383:
  21:../../../libDaisy/src/daisy_seed.h ****     ~DaisySeed() {}
 865              		.loc 1 21 17 view .LVU235
 866 0018 8165     		str	r1, [r0, #88]
 867 001a C0E90034 		strd	r3, r4, [r0]
 868 001e C0E90244 		strd	r4, r4, [r0, #8]
 869              	.LBE383:
 870              	.LBE386:
   9:main.cpp      **** XorM glitch;
 871              		.loc 8 9 6 view .LVU236
 872 0022 154C     		ldr	r4, .L25+8
 873              	.LBB387:
 874              	.LBB384:
 875              	.LBB377:
 876              	.LBB335:
 877              	.LBB333:
 878              	.LBB331:
 879              	.LBB329:
  69:../../../libDaisy/src/per/gpio.h ****         {
 880              		.loc 12 69 73 view .LVU237
 881 0024 C0E90A13 		strd	r1, r3, [r0, #40]
 882              	.LBE329:
 883              	.LBE331:
 884              	.LBE333:
 885              	.LBE335:
 886              	.LBE377:
 887              	.LBB378:
 888              	.LBB349:
 889              	.LBB347:
 890              	.LBB345:
 891              	.LBB343:
 892 0028 C0E90F13 		strd	r1, r3, [r0, #60]
 893              	.LBE343:
ARM GAS  C:\Users\skipi\AppData\Local\Temp\ccG6iBdF.s 			page 39


 894              	.LBE345:
 895              	.LBE347:
 896              	.LBE349:
 897              	.LBE378:
 898              	.LBB379:
 899              	.LBB336:
 900              	.LBB334:
 901              	.LBB332:
 902              	.LBB330:
 903 002c C0E90C33 		strd	r3, r3, [r0, #48]
 904              	.LBE330:
 905              	.LBE332:
 906              	.LBE334:
 907              	.LBE336:
 908              	.LBE379:
 909              	.LBB380:
 910              	.LBB350:
 911              	.LBB348:
 912              	.LBB346:
 913              	.LBB344:
 914 0030 C0E91133 		strd	r3, r3, [r0, #68]
 915              	.LBE344:
 916              	.LBE346:
 917              	.LBE348:
 918              	.LBE350:
 919              	.LBE380:
 920              	.LBB381:
 921              	.LBB368:
 922              	.LBB366:
 923              	.LBB364:
 924              	.LBB362:
 925              	.LBB360:
 926 0034 C0E91733 		strd	r3, r3, [r0, #92]
 927              	.LBE360:
 928              	.LBE362:
 929              	.LBE364:
 930              	.LBE366:
 931              	.LBE368:
 932              	.LBE381:
 933              	.LBE384:
 934              	.LBE387:
   8:main.cpp      **** DaisySeed hw;
 935              		.loc 8 8 11 view .LVU238
 936 0038 1049     		ldr	r1, .L25+12
 937 003a FFF7FEFF 		bl	__aeabi_atexit
 938              	.LVL45:
   9:main.cpp      **** XorM glitch;
 939              		.loc 8 9 6 view .LVU239
 940 003e 2046     		mov	r0, r4
 941 0040 FFF7FEFF 		bl	_ZN4XorMC1Ev
 942              	.LVL46:
 943 0044 0B4A     		ldr	r2, .L25+4
 944 0046 0E49     		ldr	r1, .L25+16
 945 0048 2046     		mov	r0, r4
 946 004a FFF7FEFF 		bl	__aeabi_atexit
 947              	.LVL47:
 948              	.LBB388:
ARM GAS  C:\Users\skipi\AppData\Local\Temp\ccG6iBdF.s 			page 40


 949              	.LBI388:
  23:../../../DaisySP/Source/Synthesis/oscillator.h ****     ~Oscillator() {}
 950              		.loc 7 23 5 is_stmt 1 view .LVU240
  23:../../../DaisySP/Source/Synthesis/oscillator.h ****     ~Oscillator() {}
 951              		.loc 7 23 5 is_stmt 0 view .LVU241
 952              	.LBE388:
  10:main.cpp      **** Oscillator tone;
 953              		.loc 8 10 12 view .LVU242
 954 004e 0D49     		ldr	r1, .L25+20
 955 0050 084A     		ldr	r2, .L25+4
 956 0052 0D48     		ldr	r0, .L25+24
 957 0054 FFF7FEFF 		bl	__aeabi_atexit
 958              	.LVL48:
 959              	.LBB389:
 960              	.LBI389:
  23:../../../DaisySP/Source/Synthesis/oscillator.h ****     ~Oscillator() {}
 961              		.loc 7 23 5 is_stmt 1 view .LVU243
  23:../../../DaisySP/Source/Synthesis/oscillator.h ****     ~Oscillator() {}
 962              		.loc 7 23 5 is_stmt 0 view .LVU244
 963              	.LBE389:
  11:main.cpp      **** Oscillator mangle;
 964              		.loc 8 11 12 view .LVU245
 965 0058 064A     		ldr	r2, .L25+4
 966 005a 0A49     		ldr	r1, .L25+20
 967 005c 0B48     		ldr	r0, .L25+28
 968 005e FFF7FEFF 		bl	__aeabi_atexit
 969              	.LVL49:
 970              	.LBB390:
 971              	.LBI390:
  23:../../../DaisySP/Source/Synthesis/oscillator.h ****     ~Oscillator() {}
 972              		.loc 7 23 5 is_stmt 1 view .LVU246
  23:../../../DaisySP/Source/Synthesis/oscillator.h ****     ~Oscillator() {}
 973              		.loc 7 23 5 is_stmt 0 view .LVU247
 974              	.LBE390:
  12:main.cpp      **** Oscillator carrier;
 975              		.loc 8 12 12 view .LVU248
 976 0062 044A     		ldr	r2, .L25+4
 977 0064 0749     		ldr	r1, .L25+20
 978 0066 0A48     		ldr	r0, .L25+32
 979              	.LBE391:
 980              	.LBE393:
 981              		.loc 8 69 1 view .LVU249
 982 0068 BDE81040 		pop	{r4, lr}
 983              		.cfi_restore 14
 984              		.cfi_restore 4
 985              		.cfi_def_cfa_offset 0
 986              	.LBB394:
 987              	.LBB392:
  12:main.cpp      **** Oscillator carrier;
 988              		.loc 8 12 12 view .LVU250
 989 006c FFF7FEBF 		b	__aeabi_atexit
 990              	.LVL50:
 991              	.L26:
 992              		.align	2
 993              	.L25:
 994 0070 00000000 		.word	.LANCHOR4
 995 0074 00000000 		.word	__dso_handle
ARM GAS  C:\Users\skipi\AppData\Local\Temp\ccG6iBdF.s 			page 41


 996 0078 00000000 		.word	.LANCHOR1
 997 007c 00000000 		.word	_ZN5daisy9DaisySeedD1Ev
 998 0080 00000000 		.word	_ZN4XorMD1Ev
 999 0084 00000000 		.word	_ZN7daisysp10OscillatorD1Ev
 1000 0088 00000000 		.word	.LANCHOR2
 1001 008c 00000000 		.word	.LANCHOR0
 1002 0090 00000000 		.word	.LANCHOR3
 1003              	.LBE392:
 1004              	.LBE394:
 1005              		.cfi_endproc
 1006              	.LFE5469:
 1008              		.section	.init_array,"aw",%init_array
 1009              		.align	2
 1010 0000 00000000 		.word	_GLOBAL__sub_I_hw(target1)
 1011              		.global	carrier
 1012              		.global	mangle
 1013              		.global	tone
 1014              		.global	glitch
 1015              		.global	hw
 1016              		.section	.bss.carrier,"aw",%nobits
 1017              		.align	2
 1018              		.set	.LANCHOR3,. + 0
 1021              	carrier:
 1022 0000 00000000 		.space	44
 1022      00000000 
 1022      00000000 
 1022      00000000 
 1022      00000000 
 1023              		.section	.bss.glitch,"aw",%nobits
 1024              		.align	2
 1025              		.set	.LANCHOR1,. + 0
 1028              	glitch:
 1029 0000 00000000 		.space	8
 1029      00000000 
 1030              		.section	.bss.hw,"aw",%nobits
 1031              		.align	2
 1032              		.set	.LANCHOR4,. + 0
 1035              	hw:
 1036 0000 00000000 		.space	116
 1036      00000000 
 1036      00000000 
 1036      00000000 
 1036      00000000 
 1037              		.section	.bss.mangle,"aw",%nobits
 1038              		.align	2
 1039              		.set	.LANCHOR0,. + 0
 1042              	mangle:
 1043 0000 00000000 		.space	44
 1043      00000000 
 1043      00000000 
 1043      00000000 
 1043      00000000 
 1044              		.section	.bss.tone,"aw",%nobits
 1045              		.align	2
 1046              		.set	.LANCHOR2,. + 0
 1049              	tone:
 1050 0000 00000000 		.space	44
ARM GAS  C:\Users\skipi\AppData\Local\Temp\ccG6iBdF.s 			page 42


 1050      00000000 
 1050      00000000 
 1050      00000000 
 1050      00000000 
 1051              		.text
 1052              	.Letext0:
 1053              		.file 14 "c:\\program files\\daisytoolchain\\arm-none-eabi\\include\\machine\\_default_types.h"
 1054              		.file 15 "c:\\program files\\daisytoolchain\\arm-none-eabi\\include\\sys\\_stdint.h"
 1055              		.file 16 "c:\\program files\\daisytoolchain\\arm-none-eabi\\include\\stdint.h"
 1056              		.file 17 "c:\\program files\\daisytoolchain\\lib\\gcc\\arm-none-eabi\\10.2.1\\include\\stddef.h"
 1057              		.file 18 "c:\\program files\\daisytoolchain\\arm-none-eabi\\include\\c++\\10.2.1\\cmath"
 1058              		.file 19 "c:\\program files\\daisytoolchain\\arm-none-eabi\\include\\c++\\10.2.1\\bits\\std_abs.h"
 1059              		.file 20 "c:\\program files\\daisytoolchain\\arm-none-eabi\\include\\c++\\10.2.1\\cstdlib"
 1060              		.file 21 "c:\\program files\\daisytoolchain\\arm-none-eabi\\include\\c++\\10.2.1\\cstdint"
 1061              		.file 22 "c:\\program files\\daisytoolchain\\arm-none-eabi\\include\\c++\\10.2.1\\type_traits"
 1062              		.file 23 "c:\\program files\\daisytoolchain\\arm-none-eabi\\include\\c++\\10.2.1\\debug\\debug.h"
 1063              		.file 24 "c:\\program files\\daisytoolchain\\arm-none-eabi\\include\\c++\\10.2.1\\arm-none-eabi\\t
 1064              		.file 25 "c:\\program files\\daisytoolchain\\arm-none-eabi\\include\\c++\\10.2.1\\bits\\algorithmf
 1065              		.file 26 "c:\\program files\\daisytoolchain\\arm-none-eabi\\include\\c++\\10.2.1\\bits\\stl_pair.h
 1066              		.file 27 "c:\\program files\\daisytoolchain\\arm-none-eabi\\include\\c++\\10.2.1\\bits\\exception_
 1067              		.file 28 "c:\\program files\\daisytoolchain\\arm-none-eabi\\include\\c++\\10.2.1\\cstdarg"
 1068              		.file 29 "c:\\program files\\daisytoolchain\\arm-none-eabi\\include\\c++\\10.2.1\\cstdio"
 1069              		.file 30 "c:\\program files\\daisytoolchain\\arm-none-eabi\\include\\c++\\10.2.1\\cstring"
 1070              		.file 31 "c:\\program files\\daisytoolchain\\arm-none-eabi\\include\\c++\\10.2.1\\cstddef"
 1071              		.file 32 "c:\\program files\\daisytoolchain\\arm-none-eabi\\include\\c++\\10.2.1\\cwchar"
 1072              		.file 33 "c:\\program files\\daisytoolchain\\arm-none-eabi\\include\\c++\\10.2.1\\clocale"
 1073              		.file 34 "c:\\program files\\daisytoolchain\\arm-none-eabi\\include\\c++\\10.2.1\\bits\\basic_stri
 1074              		.file 35 "c:\\program files\\daisytoolchain\\arm-none-eabi\\include\\c++\\10.2.1\\bits\\stl_tempbu
 1075              		.file 36 "c:\\program files\\daisytoolchain\\arm-none-eabi\\include\\c++\\10.2.1\\bits\\predefined
 1076              		.file 37 "c:\\program files\\daisytoolchain\\arm-none-eabi\\include\\sys\\_types.h"
 1077              		.file 38 "c:\\program files\\daisytoolchain\\arm-none-eabi\\include\\sys\\reent.h"
 1078              		.file 39 "c:\\program files\\daisytoolchain\\arm-none-eabi\\include\\sys\\lock.h"
 1079              		.file 40 "c:\\program files\\daisytoolchain\\arm-none-eabi\\include\\math.h"
 1080              		.file 41 "c:\\program files\\daisytoolchain\\arm-none-eabi\\include\\stdlib.h"
 1081              		.file 42 "c:\\program files\\daisytoolchain\\arm-none-eabi\\include\\c++\\10.2.1\\math.h"
 1082              		.file 43 "c:\\program files\\daisytoolchain\\arm-none-eabi\\include\\c++\\10.2.1\\stdlib.h"
 1083              		.file 44 "../../../libDaisy/src/per/tim.h"
 1084              		.file 45 "../../../libDaisy/src/dev/max11300.h"
 1085              		.file 46 "../../../libDaisy/src/dev/sr_595.h"
 1086              		.file 47 "../../../libDaisy/src/util/wav_format.h"
 1087              		.file 48 "../../../libDaisy/src/dev/sdram.h"
 1088              		.file 49 "c:\\program files\\daisytoolchain\\lib\\gcc\\arm-none-eabi\\10.2.1\\include\\stdarg.h"
 1089              		.file 50 "c:\\program files\\daisytoolchain\\arm-none-eabi\\include\\stdio.h"
 1090              		.file 51 "c:\\program files\\daisytoolchain\\arm-none-eabi\\include\\string.h"
 1091              		.file 52 "../../../libDaisy/Middlewares/Third_Party/FatFs/src/integer.h"
 1092              		.file 53 "../../../libDaisy/Middlewares/Third_Party/FatFs/src/ff.h"
 1093              		.file 54 "../../../DaisySP/Source/Control/adenv.h"
 1094              		.file 55 "../../../DaisySP/Source/Utility/dsp.h"
 1095              		.file 56 "c:\\program files\\daisytoolchain\\arm-none-eabi\\include\\wchar.h"
 1096              		.file 57 "c:\\program files\\daisytoolchain\\arm-none-eabi\\include\\locale.h"
 1097              		.file 58 "XorM.h"
 1098              		.file 59 "<built-in>"
ARM GAS  C:\Users\skipi\AppData\Local\Temp\ccG6iBdF.s 			page 43

